
buffer:     file format elf64-x86-64


Disassembly of section .init:

0000000000400d18 <_init>:
  400d18:	48 83 ec 08          	sub    $0x8,%rsp
  400d1c:	48 8b 05 d5 32 20 00 	mov    0x2032d5(%rip),%rax        # 603ff8 <__gmon_start__>
  400d23:	48 85 c0             	test   %rax,%rax
  400d26:	74 02                	je     400d2a <_init+0x12>
  400d28:	ff d0                	callq  *%rax
  400d2a:	48 83 c4 08          	add    $0x8,%rsp
  400d2e:	c3                   	retq   

Disassembly of section .plt:

0000000000400d30 <.plt>:
  400d30:	ff 35 d2 32 20 00    	pushq  0x2032d2(%rip)        # 604008 <_GLOBAL_OFFSET_TABLE_+0x8>
  400d36:	ff 25 d4 32 20 00    	jmpq   *0x2032d4(%rip)        # 604010 <_GLOBAL_OFFSET_TABLE_+0x10>
  400d3c:	0f 1f 40 00          	nopl   0x0(%rax)

0000000000400d40 <strcasecmp@plt>:
  400d40:	ff 25 d2 32 20 00    	jmpq   *0x2032d2(%rip)        # 604018 <strcasecmp@GLIBC_2.2.5>
  400d46:	68 00 00 00 00       	pushq  $0x0
  400d4b:	e9 e0 ff ff ff       	jmpq   400d30 <.plt>

0000000000400d50 <__errno_location@plt>:
  400d50:	ff 25 ca 32 20 00    	jmpq   *0x2032ca(%rip)        # 604020 <__errno_location@GLIBC_2.2.5>
  400d56:	68 01 00 00 00       	pushq  $0x1
  400d5b:	e9 d0 ff ff ff       	jmpq   400d30 <.plt>

0000000000400d60 <srandom@plt>:
  400d60:	ff 25 c2 32 20 00    	jmpq   *0x2032c2(%rip)        # 604028 <srandom@GLIBC_2.2.5>
  400d66:	68 02 00 00 00       	pushq  $0x2
  400d6b:	e9 c0 ff ff ff       	jmpq   400d30 <.plt>

0000000000400d70 <strcpy@plt>:
  400d70:	ff 25 ba 32 20 00    	jmpq   *0x2032ba(%rip)        # 604030 <strcpy@GLIBC_2.2.5>
  400d76:	68 03 00 00 00       	pushq  $0x3
  400d7b:	e9 b0 ff ff ff       	jmpq   400d30 <.plt>

0000000000400d80 <__isoc99_fscanf@plt>:
  400d80:	ff 25 b2 32 20 00    	jmpq   *0x2032b2(%rip)        # 604038 <__isoc99_fscanf@GLIBC_2.7>
  400d86:	68 04 00 00 00       	pushq  $0x4
  400d8b:	e9 a0 ff ff ff       	jmpq   400d30 <.plt>

0000000000400d90 <isatty@plt>:
  400d90:	ff 25 aa 32 20 00    	jmpq   *0x2032aa(%rip)        # 604040 <isatty@GLIBC_2.2.5>
  400d96:	68 05 00 00 00       	pushq  $0x5
  400d9b:	e9 90 ff ff ff       	jmpq   400d30 <.plt>

0000000000400da0 <write@plt>:
  400da0:	ff 25 a2 32 20 00    	jmpq   *0x2032a2(%rip)        # 604048 <write@GLIBC_2.2.5>
  400da6:	68 06 00 00 00       	pushq  $0x6
  400dab:	e9 80 ff ff ff       	jmpq   400d30 <.plt>

0000000000400db0 <getpid@plt>:
  400db0:	ff 25 9a 32 20 00    	jmpq   *0x20329a(%rip)        # 604050 <getpid@GLIBC_2.2.5>
  400db6:	68 07 00 00 00       	pushq  $0x7
  400dbb:	e9 70 ff ff ff       	jmpq   400d30 <.plt>

0000000000400dc0 <strlen@plt>:
  400dc0:	ff 25 92 32 20 00    	jmpq   *0x203292(%rip)        # 604058 <strlen@GLIBC_2.2.5>
  400dc6:	68 08 00 00 00       	pushq  $0x8
  400dcb:	e9 60 ff ff ff       	jmpq   400d30 <.plt>

0000000000400dd0 <mmap@plt>:
  400dd0:	ff 25 8a 32 20 00    	jmpq   *0x20328a(%rip)        # 604060 <mmap@GLIBC_2.2.5>
  400dd6:	68 09 00 00 00       	pushq  $0x9
  400ddb:	e9 50 ff ff ff       	jmpq   400d30 <.plt>

0000000000400de0 <htons@plt>:
  400de0:	ff 25 82 32 20 00    	jmpq   *0x203282(%rip)        # 604068 <htons@GLIBC_2.2.5>
  400de6:	68 0a 00 00 00       	pushq  $0xa
  400deb:	e9 40 ff ff ff       	jmpq   400d30 <.plt>

0000000000400df0 <printf@plt>:
  400df0:	ff 25 7a 32 20 00    	jmpq   *0x20327a(%rip)        # 604070 <printf@GLIBC_2.2.5>
  400df6:	68 0b 00 00 00       	pushq  $0xb
  400dfb:	e9 30 ff ff ff       	jmpq   400d30 <.plt>

0000000000400e00 <__assert_fail@plt>:
  400e00:	ff 25 72 32 20 00    	jmpq   *0x203272(%rip)        # 604078 <__assert_fail@GLIBC_2.2.5>
  400e06:	68 0c 00 00 00       	pushq  $0xc
  400e0b:	e9 20 ff ff ff       	jmpq   400d30 <.plt>

0000000000400e10 <memset@plt>:
  400e10:	ff 25 6a 32 20 00    	jmpq   *0x20326a(%rip)        # 604080 <memset@GLIBC_2.2.5>
  400e16:	68 0d 00 00 00       	pushq  $0xd
  400e1b:	e9 10 ff ff ff       	jmpq   400d30 <.plt>

0000000000400e20 <alarm@plt>:
  400e20:	ff 25 62 32 20 00    	jmpq   *0x203262(%rip)        # 604088 <alarm@GLIBC_2.2.5>
  400e26:	68 0e 00 00 00       	pushq  $0xe
  400e2b:	e9 00 ff ff ff       	jmpq   400d30 <.plt>

0000000000400e30 <close@plt>:
  400e30:	ff 25 5a 32 20 00    	jmpq   *0x20325a(%rip)        # 604090 <close@GLIBC_2.2.5>
  400e36:	68 0f 00 00 00       	pushq  $0xf
  400e3b:	e9 f0 fe ff ff       	jmpq   400d30 <.plt>

0000000000400e40 <read@plt>:
  400e40:	ff 25 52 32 20 00    	jmpq   *0x203252(%rip)        # 604098 <read@GLIBC_2.2.5>
  400e46:	68 10 00 00 00       	pushq  $0x10
  400e4b:	e9 e0 fe ff ff       	jmpq   400d30 <.plt>

0000000000400e50 <srand@plt>:
  400e50:	ff 25 4a 32 20 00    	jmpq   *0x20324a(%rip)        # 6040a0 <srand@GLIBC_2.2.5>
  400e56:	68 11 00 00 00       	pushq  $0x11
  400e5b:	e9 d0 fe ff ff       	jmpq   400d30 <.plt>

0000000000400e60 <calloc@plt>:
  400e60:	ff 25 42 32 20 00    	jmpq   *0x203242(%rip)        # 6040a8 <calloc@GLIBC_2.2.5>
  400e66:	68 12 00 00 00       	pushq  $0x12
  400e6b:	e9 c0 fe ff ff       	jmpq   400d30 <.plt>

0000000000400e70 <strcmp@plt>:
  400e70:	ff 25 3a 32 20 00    	jmpq   *0x20323a(%rip)        # 6040b0 <strcmp@GLIBC_2.2.5>
  400e76:	68 13 00 00 00       	pushq  $0x13
  400e7b:	e9 b0 fe ff ff       	jmpq   400d30 <.plt>

0000000000400e80 <signal@plt>:
  400e80:	ff 25 32 32 20 00    	jmpq   *0x203232(%rip)        # 6040b8 <signal@GLIBC_2.2.5>
  400e86:	68 14 00 00 00       	pushq  $0x14
  400e8b:	e9 a0 fe ff ff       	jmpq   400d30 <.plt>

0000000000400e90 <gethostbyname@plt>:
  400e90:	ff 25 2a 32 20 00    	jmpq   *0x20322a(%rip)        # 6040c0 <gethostbyname@GLIBC_2.2.5>
  400e96:	68 15 00 00 00       	pushq  $0x15
  400e9b:	e9 90 fe ff ff       	jmpq   400d30 <.plt>

0000000000400ea0 <fprintf@plt>:
  400ea0:	ff 25 22 32 20 00    	jmpq   *0x203222(%rip)        # 6040c8 <fprintf@GLIBC_2.2.5>
  400ea6:	68 16 00 00 00       	pushq  $0x16
  400eab:	e9 80 fe ff ff       	jmpq   400d30 <.plt>

0000000000400eb0 <memcpy@plt>:
  400eb0:	ff 25 1a 32 20 00    	jmpq   *0x20321a(%rip)        # 6040d0 <memcpy@GLIBC_2.14>
  400eb6:	68 17 00 00 00       	pushq  $0x17
  400ebb:	e9 70 fe ff ff       	jmpq   400d30 <.plt>

0000000000400ec0 <time@plt>:
  400ec0:	ff 25 12 32 20 00    	jmpq   *0x203212(%rip)        # 6040d8 <time@GLIBC_2.2.5>
  400ec6:	68 18 00 00 00       	pushq  $0x18
  400ecb:	e9 60 fe ff ff       	jmpq   400d30 <.plt>

0000000000400ed0 <fileno@plt>:
  400ed0:	ff 25 0a 32 20 00    	jmpq   *0x20320a(%rip)        # 6040e0 <fileno@GLIBC_2.2.5>
  400ed6:	68 19 00 00 00       	pushq  $0x19
  400edb:	e9 50 fe ff ff       	jmpq   400d30 <.plt>

0000000000400ee0 <random@plt>:
  400ee0:	ff 25 02 32 20 00    	jmpq   *0x203202(%rip)        # 6040e8 <random@GLIBC_2.2.5>
  400ee6:	68 1a 00 00 00       	pushq  $0x1a
  400eeb:	e9 40 fe ff ff       	jmpq   400d30 <.plt>

0000000000400ef0 <_IO_getc@plt>:
  400ef0:	ff 25 fa 31 20 00    	jmpq   *0x2031fa(%rip)        # 6040f0 <_IO_getc@GLIBC_2.2.5>
  400ef6:	68 1b 00 00 00       	pushq  $0x1b
  400efb:	e9 30 fe ff ff       	jmpq   400d30 <.plt>

0000000000400f00 <__isoc99_sscanf@plt>:
  400f00:	ff 25 f2 31 20 00    	jmpq   *0x2031f2(%rip)        # 6040f8 <__isoc99_sscanf@GLIBC_2.7>
  400f06:	68 1c 00 00 00       	pushq  $0x1c
  400f0b:	e9 20 fe ff ff       	jmpq   400d30 <.plt>

0000000000400f10 <munmap@plt>:
  400f10:	ff 25 ea 31 20 00    	jmpq   *0x2031ea(%rip)        # 604100 <munmap@GLIBC_2.2.5>
  400f16:	68 1d 00 00 00       	pushq  $0x1d
  400f1b:	e9 10 fe ff ff       	jmpq   400d30 <.plt>

0000000000400f20 <bcopy@plt>:
  400f20:	ff 25 e2 31 20 00    	jmpq   *0x2031e2(%rip)        # 604108 <bcopy@GLIBC_2.2.5>
  400f26:	68 1e 00 00 00       	pushq  $0x1e
  400f2b:	e9 00 fe ff ff       	jmpq   400d30 <.plt>

0000000000400f30 <fopen@plt>:
  400f30:	ff 25 da 31 20 00    	jmpq   *0x2031da(%rip)        # 604110 <fopen@GLIBC_2.2.5>
  400f36:	68 1f 00 00 00       	pushq  $0x1f
  400f3b:	e9 f0 fd ff ff       	jmpq   400d30 <.plt>

0000000000400f40 <getopt@plt>:
  400f40:	ff 25 d2 31 20 00    	jmpq   *0x2031d2(%rip)        # 604118 <getopt@GLIBC_2.2.5>
  400f46:	68 20 00 00 00       	pushq  $0x20
  400f4b:	e9 e0 fd ff ff       	jmpq   400d30 <.plt>

0000000000400f50 <gethostname@plt>:
  400f50:	ff 25 ca 31 20 00    	jmpq   *0x2031ca(%rip)        # 604120 <gethostname@GLIBC_2.2.5>
  400f56:	68 21 00 00 00       	pushq  $0x21
  400f5b:	e9 d0 fd ff ff       	jmpq   400d30 <.plt>

0000000000400f60 <sprintf@plt>:
  400f60:	ff 25 c2 31 20 00    	jmpq   *0x2031c2(%rip)        # 604128 <sprintf@GLIBC_2.2.5>
  400f66:	68 22 00 00 00       	pushq  $0x22
  400f6b:	e9 c0 fd ff ff       	jmpq   400d30 <.plt>

0000000000400f70 <exit@plt>:
  400f70:	ff 25 ba 31 20 00    	jmpq   *0x2031ba(%rip)        # 604130 <exit@GLIBC_2.2.5>
  400f76:	68 23 00 00 00       	pushq  $0x23
  400f7b:	e9 b0 fd ff ff       	jmpq   400d30 <.plt>

0000000000400f80 <connect@plt>:
  400f80:	ff 25 b2 31 20 00    	jmpq   *0x2031b2(%rip)        # 604138 <connect@GLIBC_2.2.5>
  400f86:	68 24 00 00 00       	pushq  $0x24
  400f8b:	e9 a0 fd ff ff       	jmpq   400d30 <.plt>

0000000000400f90 <rand@plt>:
  400f90:	ff 25 aa 31 20 00    	jmpq   *0x2031aa(%rip)        # 604140 <rand@GLIBC_2.2.5>
  400f96:	68 25 00 00 00       	pushq  $0x25
  400f9b:	e9 90 fd ff ff       	jmpq   400d30 <.plt>

0000000000400fa0 <socket@plt>:
  400fa0:	ff 25 a2 31 20 00    	jmpq   *0x2031a2(%rip)        # 604148 <socket@GLIBC_2.2.5>
  400fa6:	68 26 00 00 00       	pushq  $0x26
  400fab:	e9 80 fd ff ff       	jmpq   400d30 <.plt>

Disassembly of section .text:

0000000000400fb0 <_start>:
  400fb0:	31 ed                	xor    %ebp,%ebp
  400fb2:	49 89 d1             	mov    %rdx,%r9
  400fb5:	5e                   	pop    %rsi
  400fb6:	48 89 e2             	mov    %rsp,%rdx
  400fb9:	48 83 e4 f0          	and    $0xfffffffffffffff0,%rsp
  400fbd:	50                   	push   %rax
  400fbe:	54                   	push   %rsp
  400fbf:	49 c7 c0 c0 2c 40 00 	mov    $0x402cc0,%r8
  400fc6:	48 c7 c1 50 2c 40 00 	mov    $0x402c50,%rcx
  400fcd:	48 c7 c7 50 18 40 00 	mov    $0x401850,%rdi
  400fd4:	ff 15 16 30 20 00    	callq  *0x203016(%rip)        # 603ff0 <__libc_start_main@GLIBC_2.2.5>
  400fda:	f4                   	hlt    
  400fdb:	0f 1f 44 00 00       	nopl   0x0(%rax,%rax,1)

0000000000400fe0 <_dl_relocate_static_pie>:
  400fe0:	f3 c3                	repz retq 
  400fe2:	66 2e 0f 1f 84 00 00 	nopw   %cs:0x0(%rax,%rax,1)
  400fe9:	00 00 00 
  400fec:	0f 1f 40 00          	nopl   0x0(%rax)

0000000000400ff0 <deregister_tm_clones>:
  400ff0:	55                   	push   %rbp
  400ff1:	b8 88 61 60 00       	mov    $0x606188,%eax
  400ff6:	48 3d 88 61 60 00    	cmp    $0x606188,%rax
  400ffc:	48 89 e5             	mov    %rsp,%rbp
  400fff:	74 17                	je     401018 <deregister_tm_clones+0x28>
  401001:	b8 00 00 00 00       	mov    $0x0,%eax
  401006:	48 85 c0             	test   %rax,%rax
  401009:	74 0d                	je     401018 <deregister_tm_clones+0x28>
  40100b:	5d                   	pop    %rbp
  40100c:	bf 88 61 60 00       	mov    $0x606188,%edi
  401011:	ff e0                	jmpq   *%rax
  401013:	0f 1f 44 00 00       	nopl   0x0(%rax,%rax,1)
  401018:	5d                   	pop    %rbp
  401019:	c3                   	retq   
  40101a:	66 0f 1f 44 00 00    	nopw   0x0(%rax,%rax,1)

0000000000401020 <register_tm_clones>:
  401020:	be 88 61 60 00       	mov    $0x606188,%esi
  401025:	55                   	push   %rbp
  401026:	48 81 ee 88 61 60 00 	sub    $0x606188,%rsi
  40102d:	48 89 e5             	mov    %rsp,%rbp
  401030:	48 c1 fe 03          	sar    $0x3,%rsi
  401034:	48 89 f0             	mov    %rsi,%rax
  401037:	48 c1 e8 3f          	shr    $0x3f,%rax
  40103b:	48 01 c6             	add    %rax,%rsi
  40103e:	48 d1 fe             	sar    %rsi
  401041:	74 15                	je     401058 <register_tm_clones+0x38>
  401043:	b8 00 00 00 00       	mov    $0x0,%eax
  401048:	48 85 c0             	test   %rax,%rax
  40104b:	74 0b                	je     401058 <register_tm_clones+0x38>
  40104d:	5d                   	pop    %rbp
  40104e:	bf 88 61 60 00       	mov    $0x606188,%edi
  401053:	ff e0                	jmpq   *%rax
  401055:	0f 1f 00             	nopl   (%rax)
  401058:	5d                   	pop    %rbp
  401059:	c3                   	retq   
  40105a:	66 0f 1f 44 00 00    	nopw   0x0(%rax,%rax,1)

0000000000401060 <__do_global_dtors_aux>:
  401060:	80 3d 61 51 20 00 00 	cmpb   $0x0,0x205161(%rip)        # 6061c8 <completed.7698>
  401067:	75 17                	jne    401080 <__do_global_dtors_aux+0x20>
  401069:	55                   	push   %rbp
  40106a:	48 89 e5             	mov    %rsp,%rbp
  40106d:	e8 7e ff ff ff       	callq  400ff0 <deregister_tm_clones>
  401072:	c6 05 4f 51 20 00 01 	movb   $0x1,0x20514f(%rip)        # 6061c8 <completed.7698>
  401079:	5d                   	pop    %rbp
  40107a:	c3                   	retq   
  40107b:	0f 1f 44 00 00       	nopl   0x0(%rax,%rax,1)
  401080:	f3 c3                	repz retq 
  401082:	0f 1f 40 00          	nopl   0x0(%rax)
  401086:	66 2e 0f 1f 84 00 00 	nopw   %cs:0x0(%rax,%rax,1)
  40108d:	00 00 00 

0000000000401090 <frame_dummy>:
  401090:	55                   	push   %rbp
  401091:	48 89 e5             	mov    %rsp,%rbp
  401094:	5d                   	pop    %rbp
  401095:	eb 89                	jmp    401020 <register_tm_clones>
  401097:	66 0f 1f 84 00 00 00 	nopw   0x0(%rax,%rax,1)
  40109e:	00 00 

00000000004010a0 <lights_off>:
  4010a0:	55                   	push   %rbp
  4010a1:	48 89 e5             	mov    %rsp,%rbp
  4010a4:	48 83 ec 10          	sub    $0x10,%rsp
  4010a8:	48 bf d4 2c 40 00 00 	movabs $0x402cd4,%rdi
  4010af:	00 00 00 
  4010b2:	b0 00                	mov    $0x0,%al
  4010b4:	e8 37 fd ff ff       	callq  400df0 <printf@plt>
  4010b9:	bf 01 00 00 00       	mov    $0x1,%edi
  4010be:	89 45 fc             	mov    %eax,-0x4(%rbp)
  4010c1:	e8 8a 0c 00 00       	callq  401d50 <validate>
  4010c6:	31 ff                	xor    %edi,%edi
  4010c8:	e8 a3 fe ff ff       	callq  400f70 <exit@plt>
  4010cd:	0f 1f 00             	nopl   (%rax)

00000000004010d0 <sandwich_order>:
  4010d0:	55                   	push   %rbp
  4010d1:	48 89 e5             	mov    %rsp,%rbp
  4010d4:	48 83 ec 20          	sub    $0x20,%rsp
  4010d8:	48 8d 45 10          	lea    0x10(%rbp),%rax
  4010dc:	48 89 c1             	mov    %rax,%rcx
  4010df:	48 83 c1 04          	add    $0x4,%rcx
  4010e3:	48 89 cf             	mov    %rcx,%rdi
  4010e6:	48 89 45 f0          	mov    %rax,-0x10(%rbp)
  4010ea:	e8 71 00 00 00       	callq  401160 <find_total>
  4010ef:	89 45 fc             	mov    %eax,-0x4(%rbp)
  4010f2:	48 8b 4d f0          	mov    -0x10(%rbp),%rcx
  4010f6:	8b 01                	mov    (%rcx),%eax
  4010f8:	3b 04 25 e0 61 60 00 	cmp    0x6061e0,%eax
  4010ff:	0f 85 36 00 00 00    	jne    40113b <sandwich_order+0x6b>
  401105:	83 7d fc 14          	cmpl   $0x14,-0x4(%rbp)
  401109:	0f 8c 2c 00 00 00    	jl     40113b <sandwich_order+0x6b>
  40110f:	48 bf f2 2c 40 00 00 	movabs $0x402cf2,%rdi
  401116:	00 00 00 
  401119:	48 8b 45 f0          	mov    -0x10(%rbp),%rax
  40111d:	8b 30                	mov    (%rax),%esi
  40111f:	8b 55 fc             	mov    -0x4(%rbp),%edx
  401122:	b0 00                	mov    $0x0,%al
  401124:	e8 c7 fc ff ff       	callq  400df0 <printf@plt>
  401129:	bf 02 00 00 00       	mov    $0x2,%edi
  40112e:	89 45 ec             	mov    %eax,-0x14(%rbp)
  401131:	e8 1a 0c 00 00       	callq  401d50 <validate>
  401136:	e9 1d 00 00 00       	jmpq   401158 <sandwich_order+0x88>
  40113b:	48 bf 28 2d 40 00 00 	movabs $0x402d28,%rdi
  401142:	00 00 00 
  401145:	48 8b 45 f0          	mov    -0x10(%rbp),%rax
  401149:	8b 30                	mov    (%rax),%esi
  40114b:	8b 55 fc             	mov    -0x4(%rbp),%edx
  40114e:	b0 00                	mov    $0x0,%al
  401150:	e8 9b fc ff ff       	callq  400df0 <printf@plt>
  401155:	89 45 e8             	mov    %eax,-0x18(%rbp)
  401158:	31 ff                	xor    %edi,%edi
  40115a:	e8 11 fe ff ff       	callq  400f70 <exit@plt>
  40115f:	90                   	nop

0000000000401160 <find_total>:
  401160:	55                   	push   %rbp
  401161:	48 89 e5             	mov    %rsp,%rbp
  401164:	48 89 7d f8          	mov    %rdi,-0x8(%rbp)
  401168:	c7 45 f0 00 00 00 00 	movl   $0x0,-0x10(%rbp)
  40116f:	c7 45 f4 00 00 00 00 	movl   $0x0,-0xc(%rbp)
  401176:	83 7d f4 04          	cmpl   $0x4,-0xc(%rbp)
  40117a:	0f 8d 1f 00 00 00    	jge    40119f <find_total+0x3f>
  401180:	48 8b 45 f8          	mov    -0x8(%rbp),%rax
  401184:	48 63 4d f4          	movslq -0xc(%rbp),%rcx
  401188:	8b 14 88             	mov    (%rax,%rcx,4),%edx
  40118b:	03 55 f0             	add    -0x10(%rbp),%edx
  40118e:	89 55 f0             	mov    %edx,-0x10(%rbp)
  401191:	8b 45 f4             	mov    -0xc(%rbp),%eax
  401194:	83 c0 01             	add    $0x1,%eax
  401197:	89 45 f4             	mov    %eax,-0xc(%rbp)
  40119a:	e9 d7 ff ff ff       	jmpq   401176 <find_total+0x16>
  40119f:	8b 45 f0             	mov    -0x10(%rbp),%eax
  4011a2:	5d                   	pop    %rbp
  4011a3:	c3                   	retq   
  4011a4:	66 66 66 2e 0f 1f 84 	data16 data16 nopw %cs:0x0(%rax,%rax,1)
  4011ab:	00 00 00 00 00 

00000000004011b0 <test_exploit>:
  4011b0:	55                   	push   %rbp
  4011b1:	48 89 e5             	mov    %rsp,%rbp
  4011b4:	48 83 ec 20          	sub    $0x20,%rsp
  4011b8:	e8 13 06 00 00       	callq  4017d0 <uniqueval>
  4011bd:	89 45 f8             	mov    %eax,-0x8(%rbp)
  4011c0:	e8 8b 00 00 00       	callq  401250 <getbuf>
  4011c5:	89 45 fc             	mov    %eax,-0x4(%rbp)
  4011c8:	8b 45 f8             	mov    -0x8(%rbp),%eax
  4011cb:	89 45 f4             	mov    %eax,-0xc(%rbp)
  4011ce:	e8 fd 05 00 00       	callq  4017d0 <uniqueval>
  4011d3:	8b 4d f4             	mov    -0xc(%rbp),%ecx
  4011d6:	39 c1                	cmp    %eax,%ecx
  4011d8:	0f 84 14 00 00 00    	je     4011f2 <test_exploit+0x42>
  4011de:	48 bf 6b 2d 40 00 00 	movabs $0x402d6b,%rdi
  4011e5:	00 00 00 
  4011e8:	b0 00                	mov    $0x0,%al
  4011ea:	e8 01 fc ff ff       	callq  400df0 <printf@plt>
  4011ef:	89 45 f0             	mov    %eax,-0x10(%rbp)
  4011f2:	8b 45 fc             	mov    -0x4(%rbp),%eax
  4011f5:	3b 04 25 e0 61 60 00 	cmp    0x6061e0,%eax
  4011fc:	0f 85 26 00 00 00    	jne    401228 <test_exploit+0x78>
  401202:	48 bf 95 2d 40 00 00 	movabs $0x402d95,%rdi
  401209:	00 00 00 
  40120c:	8b 75 fc             	mov    -0x4(%rbp),%esi
  40120f:	b0 00                	mov    $0x0,%al
  401211:	e8 da fb ff ff       	callq  400df0 <printf@plt>
  401216:	bf 03 00 00 00       	mov    $0x3,%edi
  40121b:	89 45 ec             	mov    %eax,-0x14(%rbp)
  40121e:	e8 2d 0b 00 00       	callq  401d50 <validate>
  401223:	e9 17 00 00 00       	jmpq   40123f <test_exploit+0x8f>
  401228:	48 bf b7 2d 40 00 00 	movabs $0x402db7,%rdi
  40122f:	00 00 00 
  401232:	8b 75 fc             	mov    -0x4(%rbp),%esi
  401235:	b0 00                	mov    $0x0,%al
  401237:	e8 b4 fb ff ff       	callq  400df0 <printf@plt>
  40123c:	89 45 e8             	mov    %eax,-0x18(%rbp)
  40123f:	48 83 c4 20          	add    $0x20,%rsp
  401243:	5d                   	pop    %rbp
  401244:	c3                   	retq   
  401245:	66 66 2e 0f 1f 84 00 	data16 nopw %cs:0x0(%rax,%rax,1)
  40124c:	00 00 00 00 

0000000000401250 <getbuf>:
  401250:	55                   	push   %rbp
  401251:	48 89 e5             	mov    %rsp,%rbp
  401254:	48 83 ec 60          	sub    $0x60,%rsp
  401258:	48 8d 7d b0          	lea    -0x50(%rbp),%rdi
  40125c:	c6 45 ff 01          	movb   $0x1,-0x1(%rbp)
  401260:	e8 1b 00 00 00       	callq  401280 <Gets>
  401265:	8a 4d ff             	mov    -0x1(%rbp),%cl
  401268:	0f be d1             	movsbl %cl,%edx
  40126b:	48 89 45 a8          	mov    %rax,-0x58(%rbp)
  40126f:	89 d0                	mov    %edx,%eax
  401271:	48 83 c4 60          	add    $0x60,%rsp
  401275:	5d                   	pop    %rbp
  401276:	c3                   	retq   
  401277:	66 0f 1f 84 00 00 00 	nopw   0x0(%rax,%rax,1)
  40127e:	00 00 

0000000000401280 <Gets>:
  401280:	55                   	push   %rbp
  401281:	48 89 e5             	mov    %rsp,%rbp
  401284:	48 83 ec 20          	sub    $0x20,%rsp
  401288:	48 89 7d f8          	mov    %rdi,-0x8(%rbp)
  40128c:	48 8b 7d f8          	mov    -0x8(%rbp),%rdi
  401290:	48 89 7d e8          	mov    %rdi,-0x18(%rbp)
  401294:	c7 04 25 e8 61 60 00 	movl   $0x0,0x6061e8
  40129b:	00 00 00 00 
  40129f:	48 8b 3c 25 d8 61 60 	mov    0x6061d8,%rdi
  4012a6:	00 
  4012a7:	e8 44 fc ff ff       	callq  400ef0 <_IO_getc@plt>
  4012ac:	31 c9                	xor    %ecx,%ecx
  4012ae:	88 ca                	mov    %cl,%dl
  4012b0:	89 45 f4             	mov    %eax,-0xc(%rbp)
  4012b3:	83 f8 ff             	cmp    $0xffffffff,%eax
  4012b6:	88 55 e7             	mov    %dl,-0x19(%rbp)
  4012b9:	0f 84 0a 00 00 00    	je     4012c9 <Gets+0x49>
  4012bf:	83 7d f4 0a          	cmpl   $0xa,-0xc(%rbp)
  4012c3:	0f 95 c0             	setne  %al
  4012c6:	88 45 e7             	mov    %al,-0x19(%rbp)
  4012c9:	8a 45 e7             	mov    -0x19(%rbp),%al
  4012cc:	a8 01                	test   $0x1,%al
  4012ce:	0f 85 05 00 00 00    	jne    4012d9 <Gets+0x59>
  4012d4:	e9 28 00 00 00       	jmpq   401301 <Gets+0x81>
  4012d9:	8b 45 f4             	mov    -0xc(%rbp),%eax
  4012dc:	88 c1                	mov    %al,%cl
  4012de:	48 8b 55 e8          	mov    -0x18(%rbp),%rdx
  4012e2:	48 89 d6             	mov    %rdx,%rsi
  4012e5:	48 83 c6 01          	add    $0x1,%rsi
  4012e9:	48 89 75 e8          	mov    %rsi,-0x18(%rbp)
  4012ed:	88 0a                	mov    %cl,(%rdx)
  4012ef:	8b 45 f4             	mov    -0xc(%rbp),%eax
  4012f2:	88 c1                	mov    %al,%cl
  4012f4:	0f be f9             	movsbl %cl,%edi
  4012f7:	e8 14 01 00 00       	callq  401410 <save_char>
  4012fc:	e9 9e ff ff ff       	jmpq   40129f <Gets+0x1f>
  401301:	48 8b 45 e8          	mov    -0x18(%rbp),%rax
  401305:	48 89 c1             	mov    %rax,%rcx
  401308:	48 83 c1 01          	add    $0x1,%rcx
  40130c:	48 89 4d e8          	mov    %rcx,-0x18(%rbp)
  401310:	c6 00 00             	movb   $0x0,(%rax)
  401313:	e8 78 08 00 00       	callq  401b90 <save_term>
  401318:	48 8b 45 f8          	mov    -0x8(%rbp),%rax
  40131c:	48 83 c4 20          	add    $0x20,%rsp
  401320:	5d                   	pop    %rbp
  401321:	c3                   	retq   
  401322:	66 66 66 66 66 2e 0f 	data16 data16 data16 data16 nopw %cs:0x0(%rax,%rax,1)
  401329:	1f 84 00 00 00 00 00 

0000000000401330 <getbufn>:
  401330:	55                   	push   %rbp
  401331:	48 89 e5             	mov    %rsp,%rbp
  401334:	48 81 ec 30 02 00 00 	sub    $0x230,%rsp
  40133b:	48 8d bd e0 fd ff ff 	lea    -0x220(%rbp),%rdi
  401342:	c7 45 fc 01 00 00 00 	movl   $0x1,-0x4(%rbp)
  401349:	e8 32 ff ff ff       	callq  401280 <Gets>
  40134e:	8b 4d fc             	mov    -0x4(%rbp),%ecx
  401351:	48 89 85 d8 fd ff ff 	mov    %rax,-0x228(%rbp)
  401358:	89 c8                	mov    %ecx,%eax
  40135a:	48 81 c4 30 02 00 00 	add    $0x230,%rsp
  401361:	5d                   	pop    %rbp
  401362:	c3                   	retq   
  401363:	66 66 66 66 2e 0f 1f 	data16 data16 data16 nopw %cs:0x0(%rax,%rax,1)
  40136a:	84 00 00 00 00 00 

0000000000401370 <test_exploitn>:
  401370:	55                   	push   %rbp
  401371:	48 89 e5             	mov    %rsp,%rbp
  401374:	48 83 ec 20          	sub    $0x20,%rsp
  401378:	e8 53 04 00 00       	callq  4017d0 <uniqueval>
  40137d:	89 45 f8             	mov    %eax,-0x8(%rbp)
  401380:	e8 ab ff ff ff       	callq  401330 <getbufn>
  401385:	89 45 fc             	mov    %eax,-0x4(%rbp)
  401388:	8b 45 f8             	mov    -0x8(%rbp),%eax
  40138b:	89 45 f4             	mov    %eax,-0xc(%rbp)
  40138e:	e8 3d 04 00 00       	callq  4017d0 <uniqueval>
  401393:	8b 4d f4             	mov    -0xc(%rbp),%ecx
  401396:	39 c1                	cmp    %eax,%ecx
  401398:	0f 84 14 00 00 00    	je     4013b2 <test_exploitn+0x42>
  40139e:	48 bf 6b 2d 40 00 00 	movabs $0x402d6b,%rdi
  4013a5:	00 00 00 
  4013a8:	b0 00                	mov    $0x0,%al
  4013aa:	e8 41 fa ff ff       	callq  400df0 <printf@plt>
  4013af:	89 45 f0             	mov    %eax,-0x10(%rbp)
  4013b2:	8b 45 fc             	mov    -0x4(%rbp),%eax
  4013b5:	3b 04 25 e0 61 60 00 	cmp    0x6061e0,%eax
  4013bc:	0f 85 26 00 00 00    	jne    4013e8 <test_exploitn+0x78>
  4013c2:	48 bf d3 2d 40 00 00 	movabs $0x402dd3,%rdi
  4013c9:	00 00 00 
  4013cc:	8b 75 fc             	mov    -0x4(%rbp),%esi
  4013cf:	b0 00                	mov    $0x0,%al
  4013d1:	e8 1a fa ff ff       	callq  400df0 <printf@plt>
  4013d6:	bf 04 00 00 00       	mov    $0x4,%edi
  4013db:	89 45 ec             	mov    %eax,-0x14(%rbp)
  4013de:	e8 6d 09 00 00       	callq  401d50 <validate>
  4013e3:	e9 17 00 00 00       	jmpq   4013ff <test_exploitn+0x8f>
  4013e8:	48 bf ef 2d 40 00 00 	movabs $0x402def,%rdi
  4013ef:	00 00 00 
  4013f2:	8b 75 fc             	mov    -0x4(%rbp),%esi
  4013f5:	b0 00                	mov    $0x0,%al
  4013f7:	e8 f4 f9 ff ff       	callq  400df0 <printf@plt>
  4013fc:	89 45 e8             	mov    %eax,-0x18(%rbp)
  4013ff:	48 83 c4 20          	add    $0x20,%rsp
  401403:	5d                   	pop    %rbp
  401404:	c3                   	retq   
  401405:	66 66 2e 0f 1f 84 00 	data16 nopw %cs:0x0(%rax,%rax,1)
  40140c:	00 00 00 00 

0000000000401410 <save_char>:
  401410:	55                   	push   %rbp
  401411:	48 89 e5             	mov    %rsp,%rbp
  401414:	40 88 f8             	mov    %dil,%al
  401417:	88 45 ff             	mov    %al,-0x1(%rbp)
  40141a:	81 3c 25 e8 61 60 00 	cmpl   $0x400,0x6061e8
  401421:	00 04 00 00 
  401425:	0f 8d 73 00 00 00    	jge    40149e <save_char+0x8e>
  40142b:	0f be 45 ff          	movsbl -0x1(%rbp),%eax
  40142f:	c1 f8 04             	sar    $0x4,%eax
  401432:	83 e0 0f             	and    $0xf,%eax
  401435:	48 63 c8             	movslq %eax,%rcx
  401438:	8a 14 0d 60 41 60 00 	mov    0x604160(,%rcx,1),%dl
  40143f:	6b 04 25 e8 61 60 00 	imul   $0x3,0x6061e8,%eax
  401446:	03 
  401447:	48 63 c8             	movslq %eax,%rcx
  40144a:	88 14 0d 10 62 60 00 	mov    %dl,0x606210(,%rcx,1)
  401451:	0f be 45 ff          	movsbl -0x1(%rbp),%eax
  401455:	83 e0 0f             	and    $0xf,%eax
  401458:	48 63 c8             	movslq %eax,%rcx
  40145b:	8a 14 0d 60 41 60 00 	mov    0x604160(,%rcx,1),%dl
  401462:	6b 04 25 e8 61 60 00 	imul   $0x3,0x6061e8,%eax
  401469:	03 
  40146a:	83 c0 01             	add    $0x1,%eax
  40146d:	48 63 c8             	movslq %eax,%rcx
  401470:	88 14 0d 10 62 60 00 	mov    %dl,0x606210(,%rcx,1)
  401477:	6b 04 25 e8 61 60 00 	imul   $0x3,0x6061e8,%eax
  40147e:	03 
  40147f:	83 c0 02             	add    $0x2,%eax
  401482:	48 63 c8             	movslq %eax,%rcx
  401485:	c6 04 0d 10 62 60 00 	movb   $0x20,0x606210(,%rcx,1)
  40148c:	20 
  40148d:	8b 04 25 e8 61 60 00 	mov    0x6061e8,%eax
  401494:	83 c0 01             	add    $0x1,%eax
  401497:	89 04 25 e8 61 60 00 	mov    %eax,0x6061e8
  40149e:	5d                   	pop    %rbp
  40149f:	c3                   	retq   

00000000004014a0 <bushandler>:
  4014a0:	55                   	push   %rbp
  4014a1:	48 89 e5             	mov    %rsp,%rbp
  4014a4:	48 83 ec 10          	sub    $0x10,%rsp
  4014a8:	48 b8 0c 2e 40 00 00 	movabs $0x402e0c,%rax
  4014af:	00 00 00 
  4014b2:	89 7d fc             	mov    %edi,-0x4(%rbp)
  4014b5:	48 89 c7             	mov    %rax,%rdi
  4014b8:	b0 00                	mov    $0x0,%al
  4014ba:	e8 31 f9 ff ff       	callq  400df0 <printf@plt>
  4014bf:	48 bf 2d 2e 40 00 00 	movabs $0x402e2d,%rdi
  4014c6:	00 00 00 
  4014c9:	89 45 f8             	mov    %eax,-0x8(%rbp)
  4014cc:	b0 00                	mov    $0x0,%al
  4014ce:	e8 1d f9 ff ff       	callq  400df0 <printf@plt>
  4014d3:	bf 01 00 00 00       	mov    $0x1,%edi
  4014d8:	89 45 f4             	mov    %eax,-0xc(%rbp)
  4014db:	e8 90 fa ff ff       	callq  400f70 <exit@plt>

00000000004014e0 <seghandler>:
  4014e0:	55                   	push   %rbp
  4014e1:	48 89 e5             	mov    %rsp,%rbp
  4014e4:	48 83 ec 10          	sub    $0x10,%rsp
  4014e8:	48 b8 44 2e 40 00 00 	movabs $0x402e44,%rax
  4014ef:	00 00 00 
  4014f2:	89 7d fc             	mov    %edi,-0x4(%rbp)
  4014f5:	48 89 c7             	mov    %rax,%rdi
  4014f8:	b0 00                	mov    $0x0,%al
  4014fa:	e8 f1 f8 ff ff       	callq  400df0 <printf@plt>
  4014ff:	48 bf 2d 2e 40 00 00 	movabs $0x402e2d,%rdi
  401506:	00 00 00 
  401509:	89 45 f8             	mov    %eax,-0x8(%rbp)
  40150c:	b0 00                	mov    $0x0,%al
  40150e:	e8 dd f8 ff ff       	callq  400df0 <printf@plt>
  401513:	bf 01 00 00 00       	mov    $0x1,%edi
  401518:	89 45 f4             	mov    %eax,-0xc(%rbp)
  40151b:	e8 50 fa ff ff       	callq  400f70 <exit@plt>

0000000000401520 <illegalhandler>:
  401520:	55                   	push   %rbp
  401521:	48 89 e5             	mov    %rsp,%rbp
  401524:	48 83 ec 10          	sub    $0x10,%rsp
  401528:	48 b8 6d 2e 40 00 00 	movabs $0x402e6d,%rax
  40152f:	00 00 00 
  401532:	89 7d fc             	mov    %edi,-0x4(%rbp)
  401535:	48 89 c7             	mov    %rax,%rdi
  401538:	b0 00                	mov    $0x0,%al
  40153a:	e8 b1 f8 ff ff       	callq  400df0 <printf@plt>
  40153f:	48 bf 2d 2e 40 00 00 	movabs $0x402e2d,%rdi
  401546:	00 00 00 
  401549:	89 45 f8             	mov    %eax,-0x8(%rbp)
  40154c:	b0 00                	mov    $0x0,%al
  40154e:	e8 9d f8 ff ff       	callq  400df0 <printf@plt>
  401553:	bf 01 00 00 00       	mov    $0x1,%edi
  401558:	89 45 f4             	mov    %eax,-0xc(%rbp)
  40155b:	e8 10 fa ff ff       	callq  400f70 <exit@plt>

0000000000401560 <launcher>:
  401560:	55                   	push   %rbp
  401561:	48 89 e5             	mov    %rsp,%rbp
  401564:	48 83 ec 30          	sub    $0x30,%rsp
  401568:	b8 00 60 58 55       	mov    $0x55586000,%eax
  40156d:	89 c1                	mov    %eax,%ecx
  40156f:	b8 00 00 20 00       	mov    $0x200000,%eax
  401574:	89 c2                	mov    %eax,%edx
  401576:	b8 07 00 00 00       	mov    $0x7,%eax
  40157b:	41 b8 32 01 00 00    	mov    $0x132,%r8d
  401581:	45 31 c9             	xor    %r9d,%r9d
  401584:	45 31 d2             	xor    %r10d,%r10d
  401587:	45 89 d3             	mov    %r10d,%r11d
  40158a:	89 7d fc             	mov    %edi,-0x4(%rbp)
  40158d:	89 75 f8             	mov    %esi,-0x8(%rbp)
  401590:	8b 75 fc             	mov    -0x4(%rbp),%esi
  401593:	89 34 25 ec 61 60 00 	mov    %esi,0x6061ec
  40159a:	8b 75 f8             	mov    -0x8(%rbp),%esi
  40159d:	89 34 25 f0 61 60 00 	mov    %esi,0x6061f0
  4015a4:	48 89 cf             	mov    %rcx,%rdi
  4015a7:	48 89 d6             	mov    %rdx,%rsi
  4015aa:	89 c2                	mov    %eax,%edx
  4015ac:	44 89 c1             	mov    %r8d,%ecx
  4015af:	45 89 c8             	mov    %r9d,%r8d
  4015b2:	4d 89 d9             	mov    %r11,%r9
  4015b5:	e8 16 f8 ff ff       	callq  400dd0 <mmap@plt>
  4015ba:	b9 00 60 58 55       	mov    $0x55586000,%ecx
  4015bf:	89 ce                	mov    %ecx,%esi
  4015c1:	48 89 45 f0          	mov    %rax,-0x10(%rbp)
  4015c5:	48 39 75 f0          	cmp    %rsi,-0x10(%rbp)
  4015c9:	0f 84 26 00 00 00    	je     4015f5 <launcher+0x95>
  4015cf:	48 be 99 2e 40 00 00 	movabs $0x402e99,%rsi
  4015d6:	00 00 00 
  4015d9:	48 8b 3c 25 c0 61 60 	mov    0x6061c0,%rdi
  4015e0:	00 
  4015e1:	b0 00                	mov    $0x0,%al
  4015e3:	e8 b8 f8 ff ff       	callq  400ea0 <fprintf@plt>
  4015e8:	bf 01 00 00 00       	mov    $0x1,%edi
  4015ed:	89 45 ec             	mov    %eax,-0x14(%rbp)
  4015f0:	e8 7b f9 ff ff       	callq  400f70 <exit@plt>
  4015f5:	b8 10 00 00 00       	mov    $0x10,%eax
  4015fa:	89 c1                	mov    %eax,%ecx
  4015fc:	31 c0                	xor    %eax,%eax
  4015fe:	89 c2                	mov    %eax,%edx
  401600:	48 8b 75 f0          	mov    -0x10(%rbp),%rsi
  401604:	48 81 c6 00 00 20 00 	add    $0x200000,%rsi
  40160b:	48 83 c6 f8          	add    $0xfffffffffffffff8,%rsi
  40160f:	48 89 34 25 00 62 60 	mov    %rsi,0x606200
  401616:	00 
  401617:	48 8b 04 25 00 62 60 	mov    0x606200,%rax
  40161e:	00 
  40161f:	48 89 55 e0          	mov    %rdx,-0x20(%rbp)
  401623:	48 99                	cqto   
  401625:	48 f7 f9             	idiv   %rcx
  401628:	48 8b 34 25 00 62 60 	mov    0x606200,%rsi
  40162f:	00 
  401630:	48 8b 7d e0          	mov    -0x20(%rbp),%rdi
  401634:	48 29 d7             	sub    %rdx,%rdi
  401637:	48 01 fe             	add    %rdi,%rsi
  40163a:	48 89 34 25 00 62 60 	mov    %rsi,0x606200
  401641:	00 
  401642:	48 8b 14 25 00 62 60 	mov    0x606200,%rdx
  401649:	00 
  40164a:	48 89 d0             	mov    %rdx,%rax
  40164d:	48 99                	cqto   
  40164f:	48 f7 f9             	idiv   %rcx
  401652:	48 83 fa 00          	cmp    $0x0,%rdx
  401656:	0f 85 05 00 00 00    	jne    401661 <launcher+0x101>
  40165c:	e9 28 00 00 00       	jmpq   401689 <launcher+0x129>
  401661:	48 bf e1 2e 40 00 00 	movabs $0x402ee1,%rdi
  401668:	00 00 00 
  40166b:	48 be 02 2f 40 00 00 	movabs $0x402f02,%rsi
  401672:	00 00 00 
  401675:	ba 81 01 00 00       	mov    $0x181,%edx
  40167a:	48 b9 0c 2f 40 00 00 	movabs $0x402f0c,%rcx
  401681:	00 00 00 
  401684:	e8 77 f7 ff ff       	callq  400e00 <__assert_fail@plt>
  401689:	48 8b 04 25 00 62 60 	mov    0x606200,%rax
  401690:	00 
  401691:	48 89 45 d8          	mov    %rax,-0x28(%rbp)
  401695:	48 8b 4d d8          	mov    -0x28(%rbp),%rcx
  401699:	48 89 e0             	mov    %rsp,%rax
  40169c:	48 89 cc             	mov    %rcx,%rsp
  40169f:	48 89 c2             	mov    %rax,%rdx
  4016a2:	48 89 14 25 f8 61 60 	mov    %rdx,0x6061f8
  4016a9:	00 
  4016aa:	8b 3c 25 ec 61 60 00 	mov    0x6061ec,%edi
  4016b1:	8b 34 25 f0 61 60 00 	mov    0x6061f0,%esi
  4016b8:	e8 33 00 00 00       	callq  4016f0 <launch>
  4016bd:	48 8b 0c 25 f8 61 60 	mov    0x6061f8,%rcx
  4016c4:	00 
  4016c5:	48 89 cc             	mov    %rcx,%rsp
  4016c8:	b8 00 00 20 00       	mov    $0x200000,%eax
  4016cd:	89 c6                	mov    %eax,%esi
  4016cf:	48 8b 7d f0          	mov    -0x10(%rbp),%rdi
  4016d3:	e8 38 f8 ff ff       	callq  400f10 <munmap@plt>
  4016d8:	89 45 d4             	mov    %eax,-0x2c(%rbp)
  4016db:	48 83 c4 30          	add    $0x30,%rsp
  4016df:	5d                   	pop    %rbp
  4016e0:	c3                   	retq   
  4016e1:	66 66 66 66 66 66 2e 	data16 data16 data16 data16 data16 nopw %cs:0x0(%rax,%rax,1)
  4016e8:	0f 1f 84 00 00 00 00 
  4016ef:	00 

00000000004016f0 <launch>:
  4016f0:	55                   	push   %rbp
  4016f1:	48 89 e5             	mov    %rsp,%rbp
  4016f4:	48 83 ec 70          	sub    $0x70,%rsp
  4016f8:	b8 f4 00 00 00       	mov    $0xf4,%eax
  4016fd:	89 7d fc             	mov    %edi,-0x4(%rbp)
  401700:	89 75 f8             	mov    %esi,-0x8(%rbp)
  401703:	48 c7 45 a8 00 00 00 	movq   $0x0,-0x58(%rbp)
  40170a:	00 
  40170b:	48 8d 4d b0          	lea    -0x50(%rbp),%rcx
  40170f:	89 ce                	mov    %ecx,%esi
  401711:	81 e6 f0 3f 00 00    	and    $0x3ff0,%esi
  401717:	89 f1                	mov    %esi,%ecx
  401719:	48 89 4d a8          	mov    %rcx,-0x58(%rbp)
  40171d:	48 8b 4d a8          	mov    -0x58(%rbp),%rcx
  401721:	48 63 55 f8          	movslq -0x8(%rbp),%rdx
  401725:	48 8d 4c 11 0f       	lea    0xf(%rcx,%rdx,1),%rcx
  40172a:	48 83 e1 f0          	and    $0xfffffffffffffff0,%rcx
  40172e:	48 89 e2             	mov    %rsp,%rdx
  401731:	48 29 ca             	sub    %rcx,%rdx
  401734:	48 89 d4             	mov    %rdx,%rsp
  401737:	48 89 55 a0          	mov    %rdx,-0x60(%rbp)
  40173b:	48 8b 4d a0          	mov    -0x60(%rbp),%rcx
  40173f:	48 8b 55 a8          	mov    -0x58(%rbp),%rdx
  401743:	48 89 cf             	mov    %rcx,%rdi
  401746:	89 c6                	mov    %eax,%esi
  401748:	e8 c3 f6 ff ff       	callq  400e10 <memset@plt>
  40174d:	48 8b 3c 25 a0 61 60 	mov    0x6061a0,%rdi
  401754:	00 
  401755:	e8 76 f7 ff ff       	callq  400ed0 <fileno@plt>
  40175a:	89 c7                	mov    %eax,%edi
  40175c:	e8 2f f6 ff ff       	callq  400d90 <isatty@plt>
  401761:	83 f8 00             	cmp    $0x0,%eax
  401764:	0f 84 14 00 00 00    	je     40177e <launch+0x8e>
  40176a:	48 bf c7 2f 40 00 00 	movabs $0x402fc7,%rdi
  401771:	00 00 00 
  401774:	b0 00                	mov    $0x0,%al
  401776:	e8 75 f6 ff ff       	callq  400df0 <printf@plt>
  40177b:	89 45 9c             	mov    %eax,-0x64(%rbp)
  40177e:	83 7d fc 00          	cmpl   $0x0,-0x4(%rbp)
  401782:	0f 84 0a 00 00 00    	je     401792 <launch+0xa2>
  401788:	e8 e3 fb ff ff       	callq  401370 <test_exploitn>
  40178d:	e9 05 00 00 00       	jmpq   401797 <launch+0xa7>
  401792:	e8 19 fa ff ff       	callq  4011b0 <test_exploit>
  401797:	83 3c 25 e4 61 60 00 	cmpl   $0x0,0x6061e4
  40179e:	00 
  40179f:	0f 85 1f 00 00 00    	jne    4017c4 <launch+0xd4>
  4017a5:	48 bf 2d 2e 40 00 00 	movabs $0x402e2d,%rdi
  4017ac:	00 00 00 
  4017af:	b0 00                	mov    $0x0,%al
  4017b1:	e8 3a f6 ff ff       	callq  400df0 <printf@plt>
  4017b6:	c7 04 25 e4 61 60 00 	movl   $0x0,0x6061e4
  4017bd:	00 00 00 00 
  4017c1:	89 45 98             	mov    %eax,-0x68(%rbp)
  4017c4:	48 89 ec             	mov    %rbp,%rsp
  4017c7:	5d                   	pop    %rbp
  4017c8:	c3                   	retq   
  4017c9:	0f 1f 80 00 00 00 00 	nopl   0x0(%rax)

00000000004017d0 <uniqueval>:
  4017d0:	55                   	push   %rbp
  4017d1:	48 89 e5             	mov    %rsp,%rbp
  4017d4:	e8 d7 f5 ff ff       	callq  400db0 <getpid@plt>
  4017d9:	89 c7                	mov    %eax,%edi
  4017db:	e8 80 f5 ff ff       	callq  400d60 <srandom@plt>
  4017e0:	e8 fb f6 ff ff       	callq  400ee0 <random@plt>
  4017e5:	89 c7                	mov    %eax,%edi
  4017e7:	89 f8                	mov    %edi,%eax
  4017e9:	5d                   	pop    %rbp
  4017ea:	c3                   	retq   
  4017eb:	0f 1f 44 00 00       	nopl   0x0(%rax,%rax,1)

00000000004017f0 <randcheck>:
  4017f0:	55                   	push   %rbp
  4017f1:	48 89 e5             	mov    %rsp,%rbp
  4017f4:	48 89 7d f0          	mov    %rdi,-0x10(%rbp)
  4017f8:	89 75 ec             	mov    %esi,-0x14(%rbp)
  4017fb:	89 55 e8             	mov    %edx,-0x18(%rbp)
  4017fe:	c7 45 e4 00 00 00 00 	movl   $0x0,-0x1c(%rbp)
  401805:	8b 45 e4             	mov    -0x1c(%rbp),%eax
  401808:	3b 45 e8             	cmp    -0x18(%rbp),%eax
  40180b:	0f 8d 33 00 00 00    	jge    401844 <randcheck+0x54>
  401811:	8b 45 ec             	mov    -0x14(%rbp),%eax
  401814:	48 8b 4d f0          	mov    -0x10(%rbp),%rcx
  401818:	48 63 55 e4          	movslq -0x1c(%rbp),%rdx
  40181c:	3b 04 91             	cmp    (%rcx,%rdx,4),%eax
  40181f:	0f 85 0c 00 00 00    	jne    401831 <randcheck+0x41>
  401825:	c7 45 fc 01 00 00 00 	movl   $0x1,-0x4(%rbp)
  40182c:	e9 1a 00 00 00       	jmpq   40184b <randcheck+0x5b>
  401831:	e9 00 00 00 00       	jmpq   401836 <randcheck+0x46>
  401836:	8b 45 e4             	mov    -0x1c(%rbp),%eax
  401839:	83 c0 01             	add    $0x1,%eax
  40183c:	89 45 e4             	mov    %eax,-0x1c(%rbp)
  40183f:	e9 c1 ff ff ff       	jmpq   401805 <randcheck+0x15>
  401844:	c7 45 fc 00 00 00 00 	movl   $0x0,-0x4(%rbp)
  40184b:	8b 45 fc             	mov    -0x4(%rbp),%eax
  40184e:	5d                   	pop    %rbp
  40184f:	c3                   	retq   

0000000000401850 <main>:
  401850:	55                   	push   %rbp
  401851:	48 89 e5             	mov    %rsp,%rbp
  401854:	48 81 ec 80 00 00 00 	sub    $0x80,%rsp
  40185b:	b8 0b 00 00 00       	mov    $0xb,%eax
  401860:	48 b9 e0 14 40 00 00 	movabs $0x4014e0,%rcx
  401867:	00 00 00 
  40186a:	c7 45 fc 00 00 00 00 	movl   $0x0,-0x4(%rbp)
  401871:	89 7d f8             	mov    %edi,-0x8(%rbp)
  401874:	48 89 75 f0          	mov    %rsi,-0x10(%rbp)
  401878:	c7 45 ec 00 00 00 00 	movl   $0x0,-0x14(%rbp)
  40187f:	c7 45 e8 00 00 00 00 	movl   $0x0,-0x18(%rbp)
  401886:	c7 45 d4 01 00 00 00 	movl   $0x1,-0x2c(%rbp)
  40188d:	89 c7                	mov    %eax,%edi
  40188f:	48 89 ce             	mov    %rcx,%rsi
  401892:	e8 e9 f5 ff ff       	callq  400e80 <signal@plt>
  401897:	bf 07 00 00 00       	mov    $0x7,%edi
  40189c:	48 be a0 14 40 00 00 	movabs $0x4014a0,%rsi
  4018a3:	00 00 00 
  4018a6:	48 89 45 b0          	mov    %rax,-0x50(%rbp)
  4018aa:	e8 d1 f5 ff ff       	callq  400e80 <signal@plt>
  4018af:	bf 04 00 00 00       	mov    $0x4,%edi
  4018b4:	48 be 20 15 40 00 00 	movabs $0x401520,%rsi
  4018bb:	00 00 00 
  4018be:	48 89 45 a8          	mov    %rax,-0x58(%rbp)
  4018c2:	e8 b9 f5 ff ff       	callq  400e80 <signal@plt>
  4018c7:	48 8b 0c 25 a0 61 60 	mov    0x6061a0,%rcx
  4018ce:	00 
  4018cf:	48 89 0c 25 d8 61 60 	mov    %rcx,0x6061d8
  4018d6:	00 
  4018d7:	48 89 45 a0          	mov    %rax,-0x60(%rbp)
  4018db:	48 ba 24 2f 40 00 00 	movabs $0x402f24,%rdx
  4018e2:	00 00 00 
  4018e5:	8b 7d f8             	mov    -0x8(%rbp),%edi
  4018e8:	48 8b 75 f0          	mov    -0x10(%rbp),%rsi
  4018ec:	e8 4f f6 ff ff       	callq  400f40 <getopt@plt>
  4018f1:	88 c1                	mov    %al,%cl
  4018f3:	88 4d d3             	mov    %cl,-0x2d(%rbp)
  4018f6:	0f be c1             	movsbl %cl,%eax
  4018f9:	83 f8 ff             	cmp    $0xffffffff,%eax
  4018fc:	0f 84 87 00 00 00    	je     401989 <main+0x139>
  401902:	0f be 45 d3          	movsbl -0x2d(%rbp),%eax
  401906:	89 c1                	mov    %eax,%ecx
  401908:	83 e9 67             	sub    $0x67,%ecx
  40190b:	89 45 9c             	mov    %eax,-0x64(%rbp)
  40190e:	89 4d 98             	mov    %ecx,-0x68(%rbp)
  401911:	0f 84 51 00 00 00    	je     401968 <main+0x118>
  401917:	e9 00 00 00 00       	jmpq   40191c <main+0xcc>
  40191c:	8b 45 9c             	mov    -0x64(%rbp),%eax
  40191f:	83 e8 68             	sub    $0x68,%eax
  401922:	89 45 94             	mov    %eax,-0x6c(%rbp)
  401925:	0f 84 19 00 00 00    	je     401944 <main+0xf4>
  40192b:	e9 00 00 00 00       	jmpq   401930 <main+0xe0>
  401930:	8b 45 9c             	mov    -0x64(%rbp),%eax
  401933:	83 e8 6e             	sub    $0x6e,%eax
  401936:	89 45 90             	mov    %eax,-0x70(%rbp)
  401939:	0f 84 16 00 00 00    	je     401955 <main+0x105>
  40193f:	e9 34 00 00 00       	jmpq   401978 <main+0x128>
  401944:	48 8b 45 f0          	mov    -0x10(%rbp),%rax
  401948:	48 8b 38             	mov    (%rax),%rdi
  40194b:	e8 e0 01 00 00       	callq  401b30 <usage>
  401950:	e9 2f 00 00 00       	jmpq   401984 <main+0x134>
  401955:	c7 45 e8 01 00 00 00 	movl   $0x1,-0x18(%rbp)
  40195c:	c7 45 d4 05 00 00 00 	movl   $0x5,-0x2c(%rbp)
  401963:	e9 1c 00 00 00       	jmpq   401984 <main+0x134>
  401968:	c7 04 25 d4 61 60 00 	movl   $0x1,0x6061d4
  40196f:	01 00 00 00 
  401973:	e9 0c 00 00 00       	jmpq   401984 <main+0x134>
  401978:	48 8b 45 f0          	mov    -0x10(%rbp),%rax
  40197c:	48 8b 38             	mov    (%rax),%rdi
  40197f:	e8 ac 01 00 00       	callq  401b30 <usage>
  401984:	e9 52 ff ff ff       	jmpq   4018db <main+0x8b>
  401989:	48 bf 2d 2f 40 00 00 	movabs $0x402f2d,%rdi
  401990:	00 00 00 
  401993:	48 be 95 32 40 00 00 	movabs $0x403295,%rsi
  40199a:	00 00 00 
  40199d:	e8 8e f5 ff ff       	callq  400f30 <fopen@plt>
  4019a2:	48 89 45 c8          	mov    %rax,-0x38(%rbp)
  4019a6:	48 83 7d c8 00       	cmpq   $0x0,-0x38(%rbp)
  4019ab:	0f 85 1e 00 00 00    	jne    4019cf <main+0x17f>
  4019b1:	48 bf 3a 2f 40 00 00 	movabs $0x402f3a,%rdi
  4019b8:	00 00 00 
  4019bb:	b0 00                	mov    $0x0,%al
  4019bd:	e8 2e f4 ff ff       	callq  400df0 <printf@plt>
  4019c2:	bf 01 00 00 00       	mov    $0x1,%edi
  4019c7:	89 45 8c             	mov    %eax,-0x74(%rbp)
  4019ca:	e8 a1 f5 ff ff       	callq  400f70 <exit@plt>
  4019cf:	48 be 77 2f 40 00 00 	movabs $0x402f77,%rsi
  4019d6:	00 00 00 
  4019d9:	48 ba e0 61 60 00 00 	movabs $0x6061e0,%rdx
  4019e0:	00 00 00 
  4019e3:	48 8b 7d c8          	mov    -0x38(%rbp),%rdi
  4019e7:	b0 00                	mov    $0x0,%al
  4019e9:	e8 92 f3 ff ff       	callq  400d80 <__isoc99_fscanf@plt>
  4019ee:	83 f8 01             	cmp    $0x1,%eax
  4019f1:	0f 84 1e 00 00 00    	je     401a15 <main+0x1c5>
  4019f7:	48 bf 7c 2f 40 00 00 	movabs $0x402f7c,%rdi
  4019fe:	00 00 00 
  401a01:	b0 00                	mov    $0x0,%al
  401a03:	e8 e8 f3 ff ff       	callq  400df0 <printf@plt>
  401a08:	bf 01 00 00 00       	mov    $0x1,%edi
  401a0d:	89 45 88             	mov    %eax,-0x78(%rbp)
  401a10:	e8 5b f5 ff ff       	callq  400f70 <exit@plt>
  401a15:	e8 96 01 00 00       	callq  401bb0 <initialize_bomb>
  401a1a:	48 bf b9 2f 40 00 00 	movabs $0x402fb9,%rdi
  401a21:	00 00 00 
  401a24:	8b 34 25 e0 61 60 00 	mov    0x6061e0,%esi
  401a2b:	b0 00                	mov    $0x0,%al
  401a2d:	e8 be f3 ff ff       	callq  400df0 <printf@plt>
  401a32:	8b 3c 25 e0 61 60 00 	mov    0x6061e0,%edi
  401a39:	89 45 84             	mov    %eax,-0x7c(%rbp)
  401a3c:	e8 1f f3 ff ff       	callq  400d60 <srandom@plt>
  401a41:	e8 9a f4 ff ff       	callq  400ee0 <random@plt>
  401a46:	be 04 00 00 00       	mov    $0x4,%esi
  401a4b:	48 25 f0 0f 00 00    	and    $0xff0,%rax
  401a51:	48 05 00 01 00 00    	add    $0x100,%rax
  401a57:	89 c7                	mov    %eax,%edi
  401a59:	89 7d ec             	mov    %edi,-0x14(%rbp)
  401a5c:	48 63 7d d4          	movslq -0x2c(%rbp),%rdi
  401a60:	e8 fb f3 ff ff       	callq  400e60 <calloc@plt>
  401a65:	48 89 45 d8          	mov    %rax,-0x28(%rbp)
  401a69:	48 8b 45 d8          	mov    -0x28(%rbp),%rax
  401a6d:	c7 00 00 00 00 00    	movl   $0x0,(%rax)
  401a73:	c7 45 e4 01 00 00 00 	movl   $0x1,-0x1c(%rbp)
  401a7a:	8b 45 e4             	mov    -0x1c(%rbp),%eax
  401a7d:	3b 45 d4             	cmp    -0x2c(%rbp),%eax
  401a80:	0f 8d 5a 00 00 00    	jge    401ae0 <main+0x290>
  401a86:	e8 55 f4 ff ff       	callq  400ee0 <random@plt>
  401a8b:	b9 80 00 00 00       	mov    $0x80,%ecx
  401a90:	89 c2                	mov    %eax,%edx
  401a92:	89 55 c4             	mov    %edx,-0x3c(%rbp)
  401a95:	8b 55 c4             	mov    -0x3c(%rbp),%edx
  401a98:	81 e2 f0 00 00 00    	and    $0xf0,%edx
  401a9e:	89 55 c0             	mov    %edx,-0x40(%rbp)
  401aa1:	2b 4d c0             	sub    -0x40(%rbp),%ecx
  401aa4:	89 4d bc             	mov    %ecx,-0x44(%rbp)
  401aa7:	48 8b 7d d8          	mov    -0x28(%rbp),%rdi
  401aab:	8b 75 bc             	mov    -0x44(%rbp),%esi
  401aae:	8b 55 e4             	mov    -0x1c(%rbp),%edx
  401ab1:	e8 3a fd ff ff       	callq  4017f0 <randcheck>
  401ab6:	83 f8 01             	cmp    $0x1,%eax
  401ab9:	0f 85 05 00 00 00    	jne    401ac4 <main+0x274>
  401abf:	e9 b6 ff ff ff       	jmpq   401a7a <main+0x22a>
  401ac4:	8b 45 bc             	mov    -0x44(%rbp),%eax
  401ac7:	48 8b 4d d8          	mov    -0x28(%rbp),%rcx
  401acb:	48 63 55 e4          	movslq -0x1c(%rbp),%rdx
  401acf:	89 04 91             	mov    %eax,(%rcx,%rdx,4)
  401ad2:	8b 45 e4             	mov    -0x1c(%rbp),%eax
  401ad5:	83 c0 01             	add    $0x1,%eax
  401ad8:	89 45 e4             	mov    %eax,-0x1c(%rbp)
  401adb:	e9 9a ff ff ff       	jmpq   401a7a <main+0x22a>
  401ae0:	c7 45 e4 00 00 00 00 	movl   $0x0,-0x1c(%rbp)
  401ae7:	8b 45 e4             	mov    -0x1c(%rbp),%eax
  401aea:	3b 45 d4             	cmp    -0x2c(%rbp),%eax
  401aed:	0f 8d 26 00 00 00    	jge    401b19 <main+0x2c9>
  401af3:	8b 7d e8             	mov    -0x18(%rbp),%edi
  401af6:	48 8b 45 d8          	mov    -0x28(%rbp),%rax
  401afa:	48 63 4d e4          	movslq -0x1c(%rbp),%rcx
  401afe:	8b 14 88             	mov    (%rax,%rcx,4),%edx
  401b01:	03 55 ec             	add    -0x14(%rbp),%edx
  401b04:	89 d6                	mov    %edx,%esi
  401b06:	e8 55 fa ff ff       	callq  401560 <launcher>
  401b0b:	8b 45 e4             	mov    -0x1c(%rbp),%eax
  401b0e:	83 c0 01             	add    $0x1,%eax
  401b11:	89 45 e4             	mov    %eax,-0x1c(%rbp)
  401b14:	e9 ce ff ff ff       	jmpq   401ae7 <main+0x297>
  401b19:	31 c0                	xor    %eax,%eax
  401b1b:	48 81 c4 80 00 00 00 	add    $0x80,%rsp
  401b22:	5d                   	pop    %rbp
  401b23:	c3                   	retq   
  401b24:	66 66 66 2e 0f 1f 84 	data16 data16 nopw %cs:0x0(%rax,%rax,1)
  401b2b:	00 00 00 00 00 

0000000000401b30 <usage>:
  401b30:	55                   	push   %rbp
  401b31:	48 89 e5             	mov    %rsp,%rbp
  401b34:	48 83 ec 20          	sub    $0x20,%rsp
  401b38:	48 b8 d4 2f 40 00 00 	movabs $0x402fd4,%rax
  401b3f:	00 00 00 
  401b42:	48 89 7d f8          	mov    %rdi,-0x8(%rbp)
  401b46:	48 8b 75 f8          	mov    -0x8(%rbp),%rsi
  401b4a:	48 89 c7             	mov    %rax,%rdi
  401b4d:	b0 00                	mov    $0x0,%al
  401b4f:	e8 9c f2 ff ff       	callq  400df0 <printf@plt>
  401b54:	48 bf e5 2f 40 00 00 	movabs $0x402fe5,%rdi
  401b5b:	00 00 00 
  401b5e:	89 45 f4             	mov    %eax,-0xc(%rbp)
  401b61:	b0 00                	mov    $0x0,%al
  401b63:	e8 88 f2 ff ff       	callq  400df0 <printf@plt>
  401b68:	48 bf ff 2f 40 00 00 	movabs $0x402fff,%rdi
  401b6f:	00 00 00 
  401b72:	89 45 f0             	mov    %eax,-0x10(%rbp)
  401b75:	b0 00                	mov    $0x0,%al
  401b77:	e8 74 f2 ff ff       	callq  400df0 <printf@plt>
  401b7c:	31 ff                	xor    %edi,%edi
  401b7e:	89 45 ec             	mov    %eax,-0x14(%rbp)
  401b81:	e8 ea f3 ff ff       	callq  400f70 <exit@plt>
  401b86:	66 2e 0f 1f 84 00 00 	nopw   %cs:0x0(%rax,%rax,1)
  401b8d:	00 00 00 

0000000000401b90 <save_term>:
  401b90:	55                   	push   %rbp
  401b91:	48 89 e5             	mov    %rsp,%rbp
  401b94:	6b 04 25 e8 61 60 00 	imul   $0x3,0x6061e8,%eax
  401b9b:	03 
  401b9c:	48 63 c8             	movslq %eax,%rcx
  401b9f:	c6 04 0d 10 62 60 00 	movb   $0x0,0x606210(,%rcx,1)
  401ba6:	00 
  401ba7:	5d                   	pop    %rbp
  401ba8:	c3                   	retq   
  401ba9:	0f 1f 80 00 00 00 00 	nopl   0x0(%rax)

0000000000401bb0 <initialize_bomb>:
  401bb0:	55                   	push   %rbp
  401bb1:	48 89 e5             	mov    %rsp,%rbp
  401bb4:	48 81 ec 30 24 00 00 	sub    $0x2430,%rsp
  401bbb:	c7 85 ec db ff ff 00 	movl   $0x0,-0x2414(%rbp)
  401bc2:	00 00 00 
  401bc5:	83 3c 25 d4 61 60 00 	cmpl   $0x0,0x6061d4
  401bcc:	00 
  401bcd:	0f 84 0a 00 00 00    	je     401bdd <initialize_bomb+0x2d>
  401bd3:	bf ff ff ff ff       	mov    $0xffffffff,%edi
  401bd8:	e8 63 0b 00 00       	callq  402740 <init_timeout>
  401bdd:	83 3c 25 d0 61 60 00 	cmpl   $0x0,0x6061d0
  401be4:	00 
  401be5:	0f 84 5c 01 00 00    	je     401d47 <initialize_bomb+0x197>
  401beb:	b8 00 04 00 00       	mov    $0x400,%eax
  401bf0:	89 c6                	mov    %eax,%esi
  401bf2:	48 8d bd f0 fb ff ff 	lea    -0x410(%rbp),%rdi
  401bf9:	e8 52 f3 ff ff       	callq  400f50 <gethostname@plt>
  401bfe:	83 f8 00             	cmp    $0x0,%eax
  401c01:	0f 84 21 00 00 00    	je     401c28 <initialize_bomb+0x78>
  401c07:	48 bf 3c 30 40 00 00 	movabs $0x40303c,%rdi
  401c0e:	00 00 00 
  401c11:	b0 00                	mov    $0x0,%al
  401c13:	e8 d8 f1 ff ff       	callq  400df0 <printf@plt>
  401c18:	bf 08 00 00 00       	mov    $0x8,%edi
  401c1d:	89 85 e8 db ff ff    	mov    %eax,-0x2418(%rbp)
  401c23:	e8 48 f3 ff ff       	callq  400f70 <exit@plt>
  401c28:	c7 45 fc 00 00 00 00 	movl   $0x0,-0x4(%rbp)
  401c2f:	48 63 45 fc          	movslq -0x4(%rbp),%rax
  401c33:	48 83 3c c5 70 41 60 	cmpq   $0x0,0x604170(,%rax,8)
  401c3a:	00 00 
  401c3c:	0f 84 43 00 00 00    	je     401c85 <initialize_bomb+0xd5>
  401c42:	48 8d b5 f0 fb ff ff 	lea    -0x410(%rbp),%rsi
  401c49:	48 63 45 fc          	movslq -0x4(%rbp),%rax
  401c4d:	48 8b 3c c5 70 41 60 	mov    0x604170(,%rax,8),%rdi
  401c54:	00 
  401c55:	e8 e6 f0 ff ff       	callq  400d40 <strcasecmp@plt>
  401c5a:	83 f8 00             	cmp    $0x0,%eax
  401c5d:	0f 85 0f 00 00 00    	jne    401c72 <initialize_bomb+0xc2>
  401c63:	c7 85 ec db ff ff 01 	movl   $0x1,-0x2414(%rbp)
  401c6a:	00 00 00 
  401c6d:	e9 13 00 00 00       	jmpq   401c85 <initialize_bomb+0xd5>
  401c72:	e9 00 00 00 00       	jmpq   401c77 <initialize_bomb+0xc7>
  401c77:	8b 45 fc             	mov    -0x4(%rbp),%eax
  401c7a:	83 c0 01             	add    $0x1,%eax
  401c7d:	89 45 fc             	mov    %eax,-0x4(%rbp)
  401c80:	e9 aa ff ff ff       	jmpq   401c2f <initialize_bomb+0x7f>
  401c85:	83 bd ec db ff ff 00 	cmpl   $0x0,-0x2414(%rbp)
  401c8c:	0f 85 73 00 00 00    	jne    401d05 <initialize_bomb+0x155>
  401c92:	48 bf 75 30 40 00 00 	movabs $0x403075,%rdi
  401c99:	00 00 00 
  401c9c:	48 8d b5 f0 fb ff ff 	lea    -0x410(%rbp),%rsi
  401ca3:	b0 00                	mov    $0x0,%al
  401ca5:	e8 46 f1 ff ff       	callq  400df0 <printf@plt>
  401caa:	c7 45 fc 00 00 00 00 	movl   $0x0,-0x4(%rbp)
  401cb1:	89 85 e4 db ff ff    	mov    %eax,-0x241c(%rbp)
  401cb7:	48 63 45 fc          	movslq -0x4(%rbp),%rax
  401cbb:	48 83 3c c5 70 41 60 	cmpq   $0x0,0x604170(,%rax,8)
  401cc2:	00 00 
  401cc4:	0f 84 31 00 00 00    	je     401cfb <initialize_bomb+0x14b>
  401cca:	48 bf c1 30 40 00 00 	movabs $0x4030c1,%rdi
  401cd1:	00 00 00 
  401cd4:	48 63 45 fc          	movslq -0x4(%rbp),%rax
  401cd8:	48 8b 34 c5 70 41 60 	mov    0x604170(,%rax,8),%rsi
  401cdf:	00 
  401ce0:	b0 00                	mov    $0x0,%al
  401ce2:	e8 09 f1 ff ff       	callq  400df0 <printf@plt>
  401ce7:	89 85 e0 db ff ff    	mov    %eax,-0x2420(%rbp)
  401ced:	8b 45 fc             	mov    -0x4(%rbp),%eax
  401cf0:	83 c0 01             	add    $0x1,%eax
  401cf3:	89 45 fc             	mov    %eax,-0x4(%rbp)
  401cf6:	e9 bc ff ff ff       	jmpq   401cb7 <initialize_bomb+0x107>
  401cfb:	bf 08 00 00 00       	mov    $0x8,%edi
  401d00:	e8 6b f2 ff ff       	callq  400f70 <exit@plt>
  401d05:	48 8d bd f0 db ff ff 	lea    -0x2410(%rbp),%rdi
  401d0c:	e8 8f 0a 00 00       	callq  4027a0 <init_driver>
  401d11:	83 f8 00             	cmp    $0x0,%eax
  401d14:	0f 8d 28 00 00 00    	jge    401d42 <initialize_bomb+0x192>
  401d1a:	48 bf b0 30 40 00 00 	movabs $0x4030b0,%rdi
  401d21:	00 00 00 
  401d24:	48 8d b5 f0 db ff ff 	lea    -0x2410(%rbp),%rsi
  401d2b:	b0 00                	mov    $0x0,%al
  401d2d:	e8 be f0 ff ff       	callq  400df0 <printf@plt>
  401d32:	bf 08 00 00 00       	mov    $0x8,%edi
  401d37:	89 85 dc db ff ff    	mov    %eax,-0x2424(%rbp)
  401d3d:	e8 2e f2 ff ff       	callq  400f70 <exit@plt>
  401d42:	e9 00 00 00 00       	jmpq   401d47 <initialize_bomb+0x197>
  401d47:	48 81 c4 30 24 00 00 	add    $0x2430,%rsp
  401d4e:	5d                   	pop    %rbp
  401d4f:	c3                   	retq   

0000000000401d50 <validate>:
  401d50:	55                   	push   %rbp
  401d51:	48 89 e5             	mov    %rsp,%rbp
  401d54:	48 83 ec 20          	sub    $0x20,%rsp
  401d58:	89 7d fc             	mov    %edi,-0x4(%rbp)
  401d5b:	83 7d fc 00          	cmpl   $0x0,-0x4(%rbp)
  401d5f:	0f 8c 0a 00 00 00    	jl     401d6f <validate+0x1f>
  401d65:	83 7d fc 06          	cmpl   $0x6,-0x4(%rbp)
  401d69:	0f 8c 19 00 00 00    	jl     401d88 <validate+0x38>
  401d6f:	48 bf c5 30 40 00 00 	movabs $0x4030c5,%rdi
  401d76:	00 00 00 
  401d79:	b0 00                	mov    $0x0,%al
  401d7b:	e8 70 f0 ff ff       	callq  400df0 <printf@plt>
  401d80:	89 45 f8             	mov    %eax,-0x8(%rbp)
  401d83:	e9 6a 00 00 00       	jmpq   401df2 <validate+0xa2>
  401d88:	c7 04 25 e4 61 60 00 	movl   $0x1,0x6061e4
  401d8f:	01 00 00 00 
  401d93:	48 63 45 fc          	movslq -0x4(%rbp),%rax
  401d97:	8b 0c 85 70 61 60 00 	mov    0x606170(,%rax,4),%ecx
  401d9e:	83 c1 ff             	add    $0xffffffff,%ecx
  401da1:	89 0c 85 70 61 60 00 	mov    %ecx,0x606170(,%rax,4)
  401da8:	83 f9 00             	cmp    $0x0,%ecx
  401dab:	0f 8e 19 00 00 00    	jle    401dca <validate+0x7a>
  401db1:	48 bf ec 30 40 00 00 	movabs $0x4030ec,%rdi
  401db8:	00 00 00 
  401dbb:	b0 00                	mov    $0x0,%al
  401dbd:	e8 2e f0 ff ff       	callq  400df0 <printf@plt>
  401dc2:	89 45 f4             	mov    %eax,-0xc(%rbp)
  401dc5:	e9 14 00 00 00       	jmpq   401dde <validate+0x8e>
  401dca:	48 bf f8 30 40 00 00 	movabs $0x4030f8,%rdi
  401dd1:	00 00 00 
  401dd4:	b0 00                	mov    $0x0,%al
  401dd6:	e8 15 f0 ff ff       	callq  400df0 <printf@plt>
  401ddb:	89 45 f0             	mov    %eax,-0x10(%rbp)
  401dde:	48 bf ff 30 40 00 00 	movabs $0x4030ff,%rdi
  401de5:	00 00 00 
  401de8:	b0 00                	mov    $0x0,%al
  401dea:	e8 01 f0 ff ff       	callq  400df0 <printf@plt>
  401def:	89 45 ec             	mov    %eax,-0x14(%rbp)
  401df2:	48 83 c4 20          	add    $0x20,%rsp
  401df6:	5d                   	pop    %rbp
  401df7:	c3                   	retq   
  401df8:	0f 1f 84 00 00 00 00 	nopl   0x0(%rax,%rax,1)
  401dff:	00 

0000000000401e00 <sigalrm_handler>:
  401e00:	55                   	push   %rbp
  401e01:	48 89 e5             	mov    %rsp,%rbp
  401e04:	48 83 ec 10          	sub    $0x10,%rsp
  401e08:	48 b8 0a 31 40 00 00 	movabs $0x40310a,%rax
  401e0f:	00 00 00 
  401e12:	be 05 00 00 00       	mov    $0x5,%esi
  401e17:	89 7d fc             	mov    %edi,-0x4(%rbp)
  401e1a:	48 89 c7             	mov    %rax,%rdi
  401e1d:	b0 00                	mov    $0x0,%al
  401e1f:	e8 cc ef ff ff       	callq  400df0 <printf@plt>
  401e24:	bf 01 00 00 00       	mov    $0x1,%edi
  401e29:	89 45 f8             	mov    %eax,-0x8(%rbp)
  401e2c:	e8 3f f1 ff ff       	callq  400f70 <exit@plt>
  401e31:	66 66 66 66 66 66 2e 	data16 data16 data16 data16 data16 nopw %cs:0x0(%rax,%rax,1)
  401e38:	0f 1f 84 00 00 00 00 
  401e3f:	00 

0000000000401e40 <submitr>:
  401e40:	55                   	push   %rbp
  401e41:	48 89 e5             	mov    %rsp,%rbp
  401e44:	53                   	push   %rbx
  401e45:	48 81 ec 58 a1 00 00 	sub    $0xa158,%rsp
  401e4c:	48 8b 45 10          	mov    0x10(%rbp),%rax
  401e50:	41 ba 02 00 00 00    	mov    $0x2,%r10d
  401e56:	41 bb 01 00 00 00    	mov    $0x1,%r11d
  401e5c:	31 db                	xor    %ebx,%ebx
  401e5e:	48 89 7d e8          	mov    %rdi,-0x18(%rbp)
  401e62:	89 75 e4             	mov    %esi,-0x1c(%rbp)
  401e65:	48 89 55 d8          	mov    %rdx,-0x28(%rbp)
  401e69:	48 89 4d d0          	mov    %rcx,-0x30(%rbp)
  401e6d:	4c 89 45 c8          	mov    %r8,-0x38(%rbp)
  401e71:	4c 89 4d c0          	mov    %r9,-0x40(%rbp)
  401e75:	c7 85 7c 7f ff ff 00 	movl   $0x0,-0x8084(%rbp)
  401e7c:	00 00 00 
  401e7f:	44 89 d7             	mov    %r10d,%edi
  401e82:	44 89 de             	mov    %r11d,%esi
  401e85:	89 da                	mov    %ebx,%edx
  401e87:	48 89 85 68 5f ff ff 	mov    %rax,-0xa098(%rbp)
  401e8e:	e8 0d f1 ff ff       	callq  400fa0 <socket@plt>
  401e93:	89 45 bc             	mov    %eax,-0x44(%rbp)
  401e96:	83 f8 00             	cmp    $0x0,%eax
  401e99:	0f 8d 23 00 00 00    	jge    401ec2 <submitr+0x82>
  401e9f:	48 8b 7d 10          	mov    0x10(%rbp),%rdi
  401ea3:	b8 2e 31 40 00       	mov    $0x40312e,%eax
  401ea8:	89 c6                	mov    %eax,%esi
  401eaa:	e8 c1 ee ff ff       	callq  400d70 <strcpy@plt>
  401eaf:	c7 45 f4 ff ff ff ff 	movl   $0xffffffff,-0xc(%rbp)
  401eb6:	48 89 85 60 5f ff ff 	mov    %rax,-0xa0a0(%rbp)
  401ebd:	e9 b1 04 00 00       	jmpq   402373 <submitr+0x533>
  401ec2:	48 8b 7d e8          	mov    -0x18(%rbp),%rdi
  401ec6:	e8 c5 ef ff ff       	callq  400e90 <gethostbyname@plt>
  401ecb:	48 89 45 b0          	mov    %rax,-0x50(%rbp)
  401ecf:	48 83 f8 00          	cmp    $0x0,%rax
  401ed3:	0f 85 39 00 00 00    	jne    401f12 <submitr+0xd2>
  401ed9:	48 be 54 31 40 00 00 	movabs $0x403154,%rsi
  401ee0:	00 00 00 
  401ee3:	48 8b 7d 10          	mov    0x10(%rbp),%rdi
  401ee7:	48 8b 55 e8          	mov    -0x18(%rbp),%rdx
  401eeb:	b0 00                	mov    $0x0,%al
  401eed:	e8 6e f0 ff ff       	callq  400f60 <sprintf@plt>
  401ef2:	8b 7d bc             	mov    -0x44(%rbp),%edi
  401ef5:	89 85 5c 5f ff ff    	mov    %eax,-0xa0a4(%rbp)
  401efb:	e8 30 ef ff ff       	callq  400e30 <close@plt>
  401f00:	c7 45 f4 ff ff ff ff 	movl   $0xffffffff,-0xc(%rbp)
  401f07:	89 85 58 5f ff ff    	mov    %eax,-0xa0a8(%rbp)
  401f0d:	e9 61 04 00 00       	jmpq   402373 <submitr+0x533>
  401f12:	48 8d 45 a0          	lea    -0x60(%rbp),%rax
  401f16:	31 f6                	xor    %esi,%esi
  401f18:	b9 10 00 00 00       	mov    $0x10,%ecx
  401f1d:	89 ca                	mov    %ecx,%edx
  401f1f:	48 89 c7             	mov    %rax,%rdi
  401f22:	48 89 85 50 5f ff ff 	mov    %rax,-0xa0b0(%rbp)
  401f29:	e8 e2 ee ff ff       	callq  400e10 <memset@plt>
  401f2e:	66 c7 45 a0 02 00    	movw   $0x2,-0x60(%rbp)
  401f34:	48 8b 45 b0          	mov    -0x50(%rbp),%rax
  401f38:	48 8b 40 18          	mov    0x18(%rax),%rax
  401f3c:	48 8b 38             	mov    (%rax),%rdi
  401f3f:	48 8b 85 50 5f ff ff 	mov    -0xa0b0(%rbp),%rax
  401f46:	48 83 c0 04          	add    $0x4,%rax
  401f4a:	48 8b 55 b0          	mov    -0x50(%rbp),%rdx
  401f4e:	48 63 52 14          	movslq 0x14(%rdx),%rdx
  401f52:	48 89 c6             	mov    %rax,%rsi
  401f55:	e8 c6 ef ff ff       	callq  400f20 <bcopy@plt>
  401f5a:	8b 4d e4             	mov    -0x1c(%rbp),%ecx
  401f5d:	66 41 89 c8          	mov    %cx,%r8w
  401f61:	41 0f b7 f8          	movzwl %r8w,%edi
  401f65:	e8 76 ee ff ff       	callq  400de0 <htons@plt>
  401f6a:	ba 10 00 00 00       	mov    $0x10,%edx
  401f6f:	48 8d 75 a0          	lea    -0x60(%rbp),%rsi
  401f73:	66 89 45 a2          	mov    %ax,-0x5e(%rbp)
  401f77:	8b 7d bc             	mov    -0x44(%rbp),%edi
  401f7a:	e8 01 f0 ff ff       	callq  400f80 <connect@plt>
  401f7f:	83 f8 00             	cmp    $0x0,%eax
  401f82:	0f 8d 39 00 00 00    	jge    401fc1 <submitr+0x181>
  401f88:	48 be 80 31 40 00 00 	movabs $0x403180,%rsi
  401f8f:	00 00 00 
  401f92:	48 8b 7d 10          	mov    0x10(%rbp),%rdi
  401f96:	48 8b 55 e8          	mov    -0x18(%rbp),%rdx
  401f9a:	b0 00                	mov    $0x0,%al
  401f9c:	e8 bf ef ff ff       	callq  400f60 <sprintf@plt>
  401fa1:	8b 7d bc             	mov    -0x44(%rbp),%edi
  401fa4:	89 85 4c 5f ff ff    	mov    %eax,-0xa0b4(%rbp)
  401faa:	e8 81 ee ff ff       	callq  400e30 <close@plt>
  401faf:	c7 45 f4 ff ff ff ff 	movl   $0xffffffff,-0xc(%rbp)
  401fb6:	89 85 48 5f ff ff    	mov    %eax,-0xa0b8(%rbp)
  401fbc:	e9 b2 03 00 00       	jmpq   402373 <submitr+0x533>
  401fc1:	48 8b 7d c0          	mov    -0x40(%rbp),%rdi
  401fc5:	e8 f6 ed ff ff       	callq  400dc0 <strlen@plt>
  401fca:	48 89 45 98          	mov    %rax,-0x68(%rbp)
  401fce:	48 8b 7d d8          	mov    -0x28(%rbp),%rdi
  401fd2:	e8 e9 ed ff ff       	callq  400dc0 <strlen@plt>
  401fd7:	48 8b 7d d0          	mov    -0x30(%rbp),%rdi
  401fdb:	48 89 85 40 5f ff ff 	mov    %rax,-0xa0c0(%rbp)
  401fe2:	e8 d9 ed ff ff       	callq  400dc0 <strlen@plt>
  401fe7:	48 8b bd 40 5f ff ff 	mov    -0xa0c0(%rbp),%rdi
  401fee:	48 01 c7             	add    %rax,%rdi
  401ff1:	48 8b 45 c8          	mov    -0x38(%rbp),%rax
  401ff5:	48 89 bd 38 5f ff ff 	mov    %rdi,-0xa0c8(%rbp)
  401ffc:	48 89 c7             	mov    %rax,%rdi
  401fff:	e8 bc ed ff ff       	callq  400dc0 <strlen@plt>
  402004:	48 8b bd 38 5f ff ff 	mov    -0xa0c8(%rbp),%rdi
  40200b:	48 01 c7             	add    %rax,%rdi
  40200e:	48 6b 45 98 03       	imul   $0x3,-0x68(%rbp),%rax
  402013:	48 01 c7             	add    %rax,%rdi
  402016:	48 81 c7 80 00 00 00 	add    $0x80,%rdi
  40201d:	48 89 7d 90          	mov    %rdi,-0x70(%rbp)
  402021:	48 81 7d 90 00 20 00 	cmpq   $0x2000,-0x70(%rbp)
  402028:	00 
  402029:	0f 86 31 00 00 00    	jbe    402060 <submitr+0x220>
  40202f:	48 8b 7d 10          	mov    0x10(%rbp),%rdi
  402033:	b8 a6 31 40 00       	mov    $0x4031a6,%eax
  402038:	89 c6                	mov    %eax,%esi
  40203a:	e8 31 ed ff ff       	callq  400d70 <strcpy@plt>
  40203f:	8b 7d bc             	mov    -0x44(%rbp),%edi
  402042:	48 89 85 30 5f ff ff 	mov    %rax,-0xa0d0(%rbp)
  402049:	e8 e2 ed ff ff       	callq  400e30 <close@plt>
  40204e:	c7 45 f4 ff ff ff ff 	movl   $0xffffffff,-0xc(%rbp)
  402055:	89 85 2c 5f ff ff    	mov    %eax,-0xa0d4(%rbp)
  40205b:	e9 13 03 00 00       	jmpq   402373 <submitr+0x533>
  402060:	48 8d 85 80 9f ff ff 	lea    -0x6080(%rbp),%rax
  402067:	31 f6                	xor    %esi,%esi
  402069:	b9 00 20 00 00       	mov    $0x2000,%ecx
  40206e:	89 ca                	mov    %ecx,%edx
  402070:	48 89 c7             	mov    %rax,%rdi
  402073:	48 89 85 20 5f ff ff 	mov    %rax,-0xa0e0(%rbp)
  40207a:	e8 91 ed ff ff       	callq  400e10 <memset@plt>
  40207f:	48 8b 7d c0          	mov    -0x40(%rbp),%rdi
  402083:	48 8b b5 20 5f ff ff 	mov    -0xa0e0(%rbp),%rsi
  40208a:	e8 f1 02 00 00       	callq  402380 <urlencode>
  40208f:	83 f8 00             	cmp    $0x0,%eax
  402092:	0f 8d 31 00 00 00    	jge    4020c9 <submitr+0x289>
  402098:	48 8b 7d 10          	mov    0x10(%rbp),%rdi
  40209c:	b8 de 31 40 00       	mov    $0x4031de,%eax
  4020a1:	89 c6                	mov    %eax,%esi
  4020a3:	e8 c8 ec ff ff       	callq  400d70 <strcpy@plt>
  4020a8:	8b 7d bc             	mov    -0x44(%rbp),%edi
  4020ab:	48 89 85 18 5f ff ff 	mov    %rax,-0xa0e8(%rbp)
  4020b2:	e8 79 ed ff ff       	callq  400e30 <close@plt>
  4020b7:	c7 45 f4 ff ff ff ff 	movl   $0xffffffff,-0xc(%rbp)
  4020be:	89 85 14 5f ff ff    	mov    %eax,-0xa0ec(%rbp)
  4020c4:	e9 aa 02 00 00       	jmpq   402373 <submitr+0x533>
  4020c9:	48 be 21 32 40 00 00 	movabs $0x403221,%rsi
  4020d0:	00 00 00 
  4020d3:	4c 8d 8d 80 9f ff ff 	lea    -0x6080(%rbp),%r9
  4020da:	48 8d bd 80 bf ff ff 	lea    -0x4080(%rbp),%rdi
  4020e1:	48 8b 55 d8          	mov    -0x28(%rbp),%rdx
  4020e5:	48 8b 4d d0          	mov    -0x30(%rbp),%rcx
  4020e9:	4c 8b 45 c8          	mov    -0x38(%rbp),%r8
  4020ed:	b0 00                	mov    $0x0,%al
  4020ef:	e8 6c ee ff ff       	callq  400f60 <sprintf@plt>
  4020f4:	48 8d 8d 80 bf ff ff 	lea    -0x4080(%rbp),%rcx
  4020fb:	8b 7d bc             	mov    -0x44(%rbp),%edi
  4020fe:	89 bd 10 5f ff ff    	mov    %edi,-0xa0f0(%rbp)
  402104:	48 89 cf             	mov    %rcx,%rdi
  402107:	89 85 0c 5f ff ff    	mov    %eax,-0xa0f4(%rbp)
  40210d:	48 89 8d 00 5f ff ff 	mov    %rcx,-0xa100(%rbp)
  402114:	e8 a7 ec ff ff       	callq  400dc0 <strlen@plt>
  402119:	8b bd 10 5f ff ff    	mov    -0xa0f0(%rbp),%edi
  40211f:	48 8b b5 00 5f ff ff 	mov    -0xa100(%rbp),%rsi
  402126:	48 89 c2             	mov    %rax,%rdx
  402129:	e8 42 04 00 00       	callq  402570 <rio_writen>
  40212e:	48 83 f8 00          	cmp    $0x0,%rax
  402132:	0f 8d 31 00 00 00    	jge    402169 <submitr+0x329>
  402138:	48 8b 7d 10          	mov    0x10(%rbp),%rdi
  40213c:	b8 6b 32 40 00       	mov    $0x40326b,%eax
  402141:	89 c6                	mov    %eax,%esi
  402143:	e8 28 ec ff ff       	callq  400d70 <strcpy@plt>
  402148:	8b 7d bc             	mov    -0x44(%rbp),%edi
  40214b:	48 89 85 f8 5e ff ff 	mov    %rax,-0xa108(%rbp)
  402152:	e8 d9 ec ff ff       	callq  400e30 <close@plt>
  402157:	c7 45 f4 ff ff ff ff 	movl   $0xffffffff,-0xc(%rbp)
  40215e:	89 85 f4 5e ff ff    	mov    %eax,-0xa10c(%rbp)
  402164:	e9 0a 02 00 00       	jmpq   402373 <submitr+0x533>
  402169:	48 8d bd 80 df ff ff 	lea    -0x2080(%rbp),%rdi
  402170:	8b 75 bc             	mov    -0x44(%rbp),%esi
  402173:	e8 a8 04 00 00       	callq  402620 <rio_readinitb>
  402178:	48 8d bd 80 df ff ff 	lea    -0x2080(%rbp),%rdi
  40217f:	be 00 20 00 00       	mov    $0x2000,%esi
  402184:	89 f2                	mov    %esi,%edx
  402186:	48 8d b5 80 bf ff ff 	lea    -0x4080(%rbp),%rsi
  40218d:	e8 ce 04 00 00       	callq  402660 <rio_readlineb>
  402192:	48 83 f8 00          	cmp    $0x0,%rax
  402196:	0f 8f 31 00 00 00    	jg     4021cd <submitr+0x38d>
  40219c:	48 8b 7d 10          	mov    0x10(%rbp),%rdi
  4021a0:	b8 97 32 40 00       	mov    $0x403297,%eax
  4021a5:	89 c6                	mov    %eax,%esi
  4021a7:	e8 c4 eb ff ff       	callq  400d70 <strcpy@plt>
  4021ac:	8b 7d bc             	mov    -0x44(%rbp),%edi
  4021af:	48 89 85 e8 5e ff ff 	mov    %rax,-0xa118(%rbp)
  4021b6:	e8 75 ec ff ff       	callq  400e30 <close@plt>
  4021bb:	c7 45 f4 ff ff ff ff 	movl   $0xffffffff,-0xc(%rbp)
  4021c2:	89 85 e4 5e ff ff    	mov    %eax,-0xa11c(%rbp)
  4021c8:	e9 a6 01 00 00       	jmpq   402373 <submitr+0x533>
  4021cd:	48 be cd 32 40 00 00 	movabs $0x4032cd,%rsi
  4021d4:	00 00 00 
  4021d7:	48 8d 8d 7c 7f ff ff 	lea    -0x8084(%rbp),%rcx
  4021de:	4c 8d 85 70 5f ff ff 	lea    -0xa090(%rbp),%r8
  4021e5:	48 8d 95 80 7f ff ff 	lea    -0x8080(%rbp),%rdx
  4021ec:	48 8d bd 80 bf ff ff 	lea    -0x4080(%rbp),%rdi
  4021f3:	b0 00                	mov    $0x0,%al
  4021f5:	e8 06 ed ff ff       	callq  400f00 <__isoc99_sscanf@plt>
  4021fa:	81 bd 7c 7f ff ff c8 	cmpl   $0xc8,-0x8084(%rbp)
  402201:	00 00 00 
  402204:	89 85 e0 5e ff ff    	mov    %eax,-0xa120(%rbp)
  40220a:	0f 84 42 00 00 00    	je     402252 <submitr+0x412>
  402210:	48 be de 32 40 00 00 	movabs $0x4032de,%rsi
  402217:	00 00 00 
  40221a:	48 8d 8d 70 5f ff ff 	lea    -0xa090(%rbp),%rcx
  402221:	48 8b 7d 10          	mov    0x10(%rbp),%rdi
  402225:	8b 95 7c 7f ff ff    	mov    -0x8084(%rbp),%edx
  40222b:	b0 00                	mov    $0x0,%al
  40222d:	e8 2e ed ff ff       	callq  400f60 <sprintf@plt>
  402232:	8b 7d bc             	mov    -0x44(%rbp),%edi
  402235:	89 85 dc 5e ff ff    	mov    %eax,-0xa124(%rbp)
  40223b:	e8 f0 eb ff ff       	callq  400e30 <close@plt>
  402240:	c7 45 f4 ff ff ff ff 	movl   $0xffffffff,-0xc(%rbp)
  402247:	89 85 d8 5e ff ff    	mov    %eax,-0xa128(%rbp)
  40224d:	e9 21 01 00 00       	jmpq   402373 <submitr+0x533>
  402252:	e9 00 00 00 00       	jmpq   402257 <submitr+0x417>
  402257:	48 8d bd 80 bf ff ff 	lea    -0x4080(%rbp),%rdi
  40225e:	b8 68 32 40 00       	mov    $0x403268,%eax
  402263:	89 c6                	mov    %eax,%esi
  402265:	e8 06 ec ff ff       	callq  400e70 <strcmp@plt>
  40226a:	83 f8 00             	cmp    $0x0,%eax
  40226d:	0f 84 5a 00 00 00    	je     4022cd <submitr+0x48d>
  402273:	48 8d bd 80 df ff ff 	lea    -0x2080(%rbp),%rdi
  40227a:	b8 00 20 00 00       	mov    $0x2000,%eax
  40227f:	89 c2                	mov    %eax,%edx
  402281:	48 8d b5 80 bf ff ff 	lea    -0x4080(%rbp),%rsi
  402288:	e8 d3 03 00 00       	callq  402660 <rio_readlineb>
  40228d:	48 83 f8 00          	cmp    $0x0,%rax
  402291:	0f 8f 31 00 00 00    	jg     4022c8 <submitr+0x488>
  402297:	48 8b 7d 10          	mov    0x10(%rbp),%rdi
  40229b:	b8 0b 33 40 00       	mov    $0x40330b,%eax
  4022a0:	89 c6                	mov    %eax,%esi
  4022a2:	e8 c9 ea ff ff       	callq  400d70 <strcpy@plt>
  4022a7:	8b 7d bc             	mov    -0x44(%rbp),%edi
  4022aa:	48 89 85 d0 5e ff ff 	mov    %rax,-0xa130(%rbp)
  4022b1:	e8 7a eb ff ff       	callq  400e30 <close@plt>
  4022b6:	c7 45 f4 ff ff ff ff 	movl   $0xffffffff,-0xc(%rbp)
  4022bd:	89 85 cc 5e ff ff    	mov    %eax,-0xa134(%rbp)
  4022c3:	e9 ab 00 00 00       	jmpq   402373 <submitr+0x533>
  4022c8:	e9 8a ff ff ff       	jmpq   402257 <submitr+0x417>
  4022cd:	48 8d bd 80 df ff ff 	lea    -0x2080(%rbp),%rdi
  4022d4:	b8 00 20 00 00       	mov    $0x2000,%eax
  4022d9:	89 c2                	mov    %eax,%edx
  4022db:	48 8d b5 80 bf ff ff 	lea    -0x4080(%rbp),%rsi
  4022e2:	e8 79 03 00 00       	callq  402660 <rio_readlineb>
  4022e7:	48 83 f8 00          	cmp    $0x0,%rax
  4022eb:	0f 8f 31 00 00 00    	jg     402322 <submitr+0x4e2>
  4022f1:	48 8b 7d 10          	mov    0x10(%rbp),%rdi
  4022f5:	b8 3c 33 40 00       	mov    $0x40333c,%eax
  4022fa:	89 c6                	mov    %eax,%esi
  4022fc:	e8 6f ea ff ff       	callq  400d70 <strcpy@plt>
  402301:	8b 7d bc             	mov    -0x44(%rbp),%edi
  402304:	48 89 85 c0 5e ff ff 	mov    %rax,-0xa140(%rbp)
  40230b:	e8 20 eb ff ff       	callq  400e30 <close@plt>
  402310:	c7 45 f4 ff ff ff ff 	movl   $0xffffffff,-0xc(%rbp)
  402317:	89 85 bc 5e ff ff    	mov    %eax,-0xa144(%rbp)
  40231d:	e9 51 00 00 00       	jmpq   402373 <submitr+0x533>
  402322:	48 8d b5 80 bf ff ff 	lea    -0x4080(%rbp),%rsi
  402329:	48 8b 7d 10          	mov    0x10(%rbp),%rdi
  40232d:	e8 3e ea ff ff       	callq  400d70 <strcpy@plt>
  402332:	8b 7d bc             	mov    -0x44(%rbp),%edi
  402335:	48 89 85 b0 5e ff ff 	mov    %rax,-0xa150(%rbp)
  40233c:	e8 ef ea ff ff       	callq  400e30 <close@plt>
  402341:	48 8b 7d 10          	mov    0x10(%rbp),%rdi
  402345:	b9 74 33 40 00       	mov    $0x403374,%ecx
  40234a:	89 ce                	mov    %ecx,%esi
  40234c:	89 85 ac 5e ff ff    	mov    %eax,-0xa154(%rbp)
  402352:	e8 19 eb ff ff       	callq  400e70 <strcmp@plt>
  402357:	83 f8 00             	cmp    $0x0,%eax
  40235a:	0f 85 0c 00 00 00    	jne    40236c <submitr+0x52c>
  402360:	c7 45 f4 00 00 00 00 	movl   $0x0,-0xc(%rbp)
  402367:	e9 07 00 00 00       	jmpq   402373 <submitr+0x533>
  40236c:	c7 45 f4 ff ff ff ff 	movl   $0xffffffff,-0xc(%rbp)
  402373:	8b 45 f4             	mov    -0xc(%rbp),%eax
  402376:	48 81 c4 58 a1 00 00 	add    $0xa158,%rsp
  40237d:	5b                   	pop    %rbx
  40237e:	5d                   	pop    %rbp
  40237f:	c3                   	retq   

0000000000402380 <urlencode>:
  402380:	55                   	push   %rbp
  402381:	48 89 e5             	mov    %rsp,%rbp
  402384:	48 83 ec 30          	sub    $0x30,%rsp
  402388:	48 89 7d f0          	mov    %rdi,-0x10(%rbp)
  40238c:	48 89 75 e8          	mov    %rsi,-0x18(%rbp)
  402390:	48 8b 7d f0          	mov    -0x10(%rbp),%rdi
  402394:	e8 27 ea ff ff       	callq  400dc0 <strlen@plt>
  402399:	89 c1                	mov    %eax,%ecx
  40239b:	89 4d e4             	mov    %ecx,-0x1c(%rbp)
  40239e:	8b 45 e4             	mov    -0x1c(%rbp),%eax
  4023a1:	89 c1                	mov    %eax,%ecx
  4023a3:	83 c1 ff             	add    $0xffffffff,%ecx
  4023a6:	89 4d e4             	mov    %ecx,-0x1c(%rbp)
  4023a9:	83 f8 00             	cmp    $0x0,%eax
  4023ac:	0f 84 ae 01 00 00    	je     402560 <urlencode+0x1e0>
  4023b2:	48 8b 45 f0          	mov    -0x10(%rbp),%rax
  4023b6:	0f b6 08             	movzbl (%rax),%ecx
  4023b9:	83 f9 2a             	cmp    $0x2a,%ecx
  4023bc:	0f 84 9c 00 00 00    	je     40245e <urlencode+0xde>
  4023c2:	48 8b 45 f0          	mov    -0x10(%rbp),%rax
  4023c6:	0f b6 08             	movzbl (%rax),%ecx
  4023c9:	83 f9 2d             	cmp    $0x2d,%ecx
  4023cc:	0f 84 8c 00 00 00    	je     40245e <urlencode+0xde>
  4023d2:	48 8b 45 f0          	mov    -0x10(%rbp),%rax
  4023d6:	0f b6 08             	movzbl (%rax),%ecx
  4023d9:	83 f9 2e             	cmp    $0x2e,%ecx
  4023dc:	0f 84 7c 00 00 00    	je     40245e <urlencode+0xde>
  4023e2:	48 8b 45 f0          	mov    -0x10(%rbp),%rax
  4023e6:	0f b6 08             	movzbl (%rax),%ecx
  4023e9:	83 f9 5f             	cmp    $0x5f,%ecx
  4023ec:	0f 84 6c 00 00 00    	je     40245e <urlencode+0xde>
  4023f2:	b8 30 00 00 00       	mov    $0x30,%eax
  4023f7:	48 8b 4d f0          	mov    -0x10(%rbp),%rcx
  4023fb:	0f b6 11             	movzbl (%rcx),%edx
  4023fe:	39 d0                	cmp    %edx,%eax
  402400:	0f 8f 10 00 00 00    	jg     402416 <urlencode+0x96>
  402406:	48 8b 45 f0          	mov    -0x10(%rbp),%rax
  40240a:	0f b6 08             	movzbl (%rax),%ecx
  40240d:	83 f9 39             	cmp    $0x39,%ecx
  402410:	0f 8e 48 00 00 00    	jle    40245e <urlencode+0xde>
  402416:	b8 41 00 00 00       	mov    $0x41,%eax
  40241b:	48 8b 4d f0          	mov    -0x10(%rbp),%rcx
  40241f:	0f b6 11             	movzbl (%rcx),%edx
  402422:	39 d0                	cmp    %edx,%eax
  402424:	0f 8f 10 00 00 00    	jg     40243a <urlencode+0xba>
  40242a:	48 8b 45 f0          	mov    -0x10(%rbp),%rax
  40242e:	0f b6 08             	movzbl (%rax),%ecx
  402431:	83 f9 5a             	cmp    $0x5a,%ecx
  402434:	0f 8e 24 00 00 00    	jle    40245e <urlencode+0xde>
  40243a:	b8 61 00 00 00       	mov    $0x61,%eax
  40243f:	48 8b 4d f0          	mov    -0x10(%rbp),%rcx
  402443:	0f b6 11             	movzbl (%rcx),%edx
  402446:	39 d0                	cmp    %edx,%eax
  402448:	0f 8f 2c 00 00 00    	jg     40247a <urlencode+0xfa>
  40244e:	48 8b 45 f0          	mov    -0x10(%rbp),%rax
  402452:	0f b6 08             	movzbl (%rax),%ecx
  402455:	83 f9 7a             	cmp    $0x7a,%ecx
  402458:	0f 8f 1c 00 00 00    	jg     40247a <urlencode+0xfa>
  40245e:	48 8b 45 f0          	mov    -0x10(%rbp),%rax
  402462:	8a 08                	mov    (%rax),%cl
  402464:	48 8b 45 e8          	mov    -0x18(%rbp),%rax
  402468:	48 89 c2             	mov    %rax,%rdx
  40246b:	48 83 c2 01          	add    $0x1,%rdx
  40246f:	48 89 55 e8          	mov    %rdx,-0x18(%rbp)
  402473:	88 08                	mov    %cl,(%rax)
  402475:	e9 d0 00 00 00       	jmpq   40254a <urlencode+0x1ca>
  40247a:	48 8b 45 f0          	mov    -0x10(%rbp),%rax
  40247e:	0f b6 08             	movzbl (%rax),%ecx
  402481:	83 f9 20             	cmp    $0x20,%ecx
  402484:	0f 85 17 00 00 00    	jne    4024a1 <urlencode+0x121>
  40248a:	48 8b 45 e8          	mov    -0x18(%rbp),%rax
  40248e:	48 89 c1             	mov    %rax,%rcx
  402491:	48 83 c1 01          	add    $0x1,%rcx
  402495:	48 89 4d e8          	mov    %rcx,-0x18(%rbp)
  402499:	c6 00 2b             	movb   $0x2b,(%rax)
  40249c:	e9 a4 00 00 00       	jmpq   402545 <urlencode+0x1c5>
  4024a1:	48 8b 45 f0          	mov    -0x10(%rbp),%rax
  4024a5:	0f b6 08             	movzbl (%rax),%ecx
  4024a8:	83 f9 1f             	cmp    $0x1f,%ecx
  4024ab:	0f 8e 13 00 00 00    	jle    4024c4 <urlencode+0x144>
  4024b1:	48 8b 45 f0          	mov    -0x10(%rbp),%rax
  4024b5:	0f b6 08             	movzbl (%rax),%ecx
  4024b8:	81 f9 80 00 00 00    	cmp    $0x80,%ecx
  4024be:	0f 8c 10 00 00 00    	jl     4024d4 <urlencode+0x154>
  4024c4:	48 8b 45 f0          	mov    -0x10(%rbp),%rax
  4024c8:	0f b6 08             	movzbl (%rax),%ecx
  4024cb:	83 f9 09             	cmp    $0x9,%ecx
  4024ce:	0f 85 60 00 00 00    	jne    402534 <urlencode+0x1b4>
  4024d4:	48 be dc 33 40 00 00 	movabs $0x4033dc,%rsi
  4024db:	00 00 00 
  4024de:	48 8d 7d dc          	lea    -0x24(%rbp),%rdi
  4024e2:	48 8b 45 f0          	mov    -0x10(%rbp),%rax
  4024e6:	0f b6 10             	movzbl (%rax),%edx
  4024e9:	b0 00                	mov    $0x0,%al
  4024eb:	e8 70 ea ff ff       	callq  400f60 <sprintf@plt>
  4024f0:	8a 4d dc             	mov    -0x24(%rbp),%cl
  4024f3:	48 8b 75 e8          	mov    -0x18(%rbp),%rsi
  4024f7:	48 89 f7             	mov    %rsi,%rdi
  4024fa:	48 83 c7 01          	add    $0x1,%rdi
  4024fe:	48 89 7d e8          	mov    %rdi,-0x18(%rbp)
  402502:	88 0e                	mov    %cl,(%rsi)
  402504:	8a 4d dd             	mov    -0x23(%rbp),%cl
  402507:	48 8b 75 e8          	mov    -0x18(%rbp),%rsi
  40250b:	48 89 f7             	mov    %rsi,%rdi
  40250e:	48 83 c7 01          	add    $0x1,%rdi
  402512:	48 89 7d e8          	mov    %rdi,-0x18(%rbp)
  402516:	88 0e                	mov    %cl,(%rsi)
  402518:	8a 4d de             	mov    -0x22(%rbp),%cl
  40251b:	48 8b 75 e8          	mov    -0x18(%rbp),%rsi
  40251f:	48 89 f7             	mov    %rsi,%rdi
  402522:	48 83 c7 01          	add    $0x1,%rdi
  402526:	48 89 7d e8          	mov    %rdi,-0x18(%rbp)
  40252a:	88 0e                	mov    %cl,(%rsi)
  40252c:	89 45 d8             	mov    %eax,-0x28(%rbp)
  40252f:	e9 0c 00 00 00       	jmpq   402540 <urlencode+0x1c0>
  402534:	c7 45 fc ff ff ff ff 	movl   $0xffffffff,-0x4(%rbp)
  40253b:	e9 27 00 00 00       	jmpq   402567 <urlencode+0x1e7>
  402540:	e9 00 00 00 00       	jmpq   402545 <urlencode+0x1c5>
  402545:	e9 00 00 00 00       	jmpq   40254a <urlencode+0x1ca>
  40254a:	e9 00 00 00 00       	jmpq   40254f <urlencode+0x1cf>
  40254f:	48 8b 45 f0          	mov    -0x10(%rbp),%rax
  402553:	48 83 c0 01          	add    $0x1,%rax
  402557:	48 89 45 f0          	mov    %rax,-0x10(%rbp)
  40255b:	e9 3e fe ff ff       	jmpq   40239e <urlencode+0x1e>
  402560:	c7 45 fc 00 00 00 00 	movl   $0x0,-0x4(%rbp)
  402567:	8b 45 fc             	mov    -0x4(%rbp),%eax
  40256a:	48 83 c4 30          	add    $0x30,%rsp
  40256e:	5d                   	pop    %rbp
  40256f:	c3                   	retq   

0000000000402570 <rio_writen>:
  402570:	55                   	push   %rbp
  402571:	48 89 e5             	mov    %rsp,%rbp
  402574:	48 83 ec 40          	sub    $0x40,%rsp
  402578:	89 7d f4             	mov    %edi,-0xc(%rbp)
  40257b:	48 89 75 e8          	mov    %rsi,-0x18(%rbp)
  40257f:	48 89 55 e0          	mov    %rdx,-0x20(%rbp)
  402583:	48 8b 55 e0          	mov    -0x20(%rbp),%rdx
  402587:	48 89 55 d8          	mov    %rdx,-0x28(%rbp)
  40258b:	48 8b 55 e8          	mov    -0x18(%rbp),%rdx
  40258f:	48 89 55 c8          	mov    %rdx,-0x38(%rbp)
  402593:	48 83 7d d8 00       	cmpq   $0x0,-0x28(%rbp)
  402598:	0f 86 6b 00 00 00    	jbe    402609 <rio_writen+0x99>
  40259e:	8b 7d f4             	mov    -0xc(%rbp),%edi
  4025a1:	48 8b 75 c8          	mov    -0x38(%rbp),%rsi
  4025a5:	48 8b 55 d8          	mov    -0x28(%rbp),%rdx
  4025a9:	e8 f2 e7 ff ff       	callq  400da0 <write@plt>
  4025ae:	48 89 45 d0          	mov    %rax,-0x30(%rbp)
  4025b2:	48 83 f8 00          	cmp    $0x0,%rax
  4025b6:	0f 8f 2d 00 00 00    	jg     4025e9 <rio_writen+0x79>
  4025bc:	e8 8f e7 ff ff       	callq  400d50 <__errno_location@plt>
  4025c1:	83 38 04             	cmpl   $0x4,(%rax)
  4025c4:	0f 85 0d 00 00 00    	jne    4025d7 <rio_writen+0x67>
  4025ca:	48 c7 45 d0 00 00 00 	movq   $0x0,-0x30(%rbp)
  4025d1:	00 
  4025d2:	e9 0d 00 00 00       	jmpq   4025e4 <rio_writen+0x74>
  4025d7:	48 c7 45 f8 ff ff ff 	movq   $0xffffffffffffffff,-0x8(%rbp)
  4025de:	ff 
  4025df:	e9 2d 00 00 00       	jmpq   402611 <rio_writen+0xa1>
  4025e4:	e9 00 00 00 00       	jmpq   4025e9 <rio_writen+0x79>
  4025e9:	48 8b 45 d0          	mov    -0x30(%rbp),%rax
  4025ed:	48 8b 4d d8          	mov    -0x28(%rbp),%rcx
  4025f1:	48 29 c1             	sub    %rax,%rcx
  4025f4:	48 89 4d d8          	mov    %rcx,-0x28(%rbp)
  4025f8:	48 8b 45 d0          	mov    -0x30(%rbp),%rax
  4025fc:	48 03 45 c8          	add    -0x38(%rbp),%rax
  402600:	48 89 45 c8          	mov    %rax,-0x38(%rbp)
  402604:	e9 8a ff ff ff       	jmpq   402593 <rio_writen+0x23>
  402609:	48 8b 45 e0          	mov    -0x20(%rbp),%rax
  40260d:	48 89 45 f8          	mov    %rax,-0x8(%rbp)
  402611:	48 8b 45 f8          	mov    -0x8(%rbp),%rax
  402615:	48 83 c4 40          	add    $0x40,%rsp
  402619:	5d                   	pop    %rbp
  40261a:	c3                   	retq   
  40261b:	0f 1f 44 00 00       	nopl   0x0(%rax,%rax,1)

0000000000402620 <rio_readinitb>:
  402620:	55                   	push   %rbp
  402621:	48 89 e5             	mov    %rsp,%rbp
  402624:	48 89 7d f8          	mov    %rdi,-0x8(%rbp)
  402628:	89 75 f4             	mov    %esi,-0xc(%rbp)
  40262b:	8b 75 f4             	mov    -0xc(%rbp),%esi
  40262e:	48 8b 7d f8          	mov    -0x8(%rbp),%rdi
  402632:	89 37                	mov    %esi,(%rdi)
  402634:	48 8b 7d f8          	mov    -0x8(%rbp),%rdi
  402638:	c7 47 04 00 00 00 00 	movl   $0x0,0x4(%rdi)
  40263f:	48 8b 7d f8          	mov    -0x8(%rbp),%rdi
  402643:	48 83 c7 10          	add    $0x10,%rdi
  402647:	48 8b 45 f8          	mov    -0x8(%rbp),%rax
  40264b:	48 89 78 08          	mov    %rdi,0x8(%rax)
  40264f:	5d                   	pop    %rbp
  402650:	c3                   	retq   
  402651:	66 66 66 66 66 66 2e 	data16 data16 data16 data16 data16 nopw %cs:0x0(%rax,%rax,1)
  402658:	0f 1f 84 00 00 00 00 
  40265f:	00 

0000000000402660 <rio_readlineb>:
  402660:	55                   	push   %rbp
  402661:	48 89 e5             	mov    %rsp,%rbp
  402664:	48 83 ec 40          	sub    $0x40,%rsp
  402668:	48 89 7d f0          	mov    %rdi,-0x10(%rbp)
  40266c:	48 89 75 e8          	mov    %rsi,-0x18(%rbp)
  402670:	48 89 55 e0          	mov    %rdx,-0x20(%rbp)
  402674:	48 8b 55 e8          	mov    -0x18(%rbp),%rdx
  402678:	48 89 55 c8          	mov    %rdx,-0x38(%rbp)
  40267c:	c7 45 dc 01 00 00 00 	movl   $0x1,-0x24(%rbp)
  402683:	48 63 45 dc          	movslq -0x24(%rbp),%rax
  402687:	48 3b 45 e0          	cmp    -0x20(%rbp),%rax
  40268b:	0f 83 93 00 00 00    	jae    402724 <rio_readlineb+0xc4>
  402691:	48 8d 75 d7          	lea    -0x29(%rbp),%rsi
  402695:	b8 01 00 00 00       	mov    $0x1,%eax
  40269a:	89 c2                	mov    %eax,%edx
  40269c:	48 8b 7d f0          	mov    -0x10(%rbp),%rdi
  4026a0:	e8 bb 03 00 00       	callq  402a60 <rio_read>
  4026a5:	89 c1                	mov    %eax,%ecx
  4026a7:	89 4d d8             	mov    %ecx,-0x28(%rbp)
  4026aa:	83 f9 01             	cmp    $0x1,%ecx
  4026ad:	0f 85 2b 00 00 00    	jne    4026de <rio_readlineb+0x7e>
  4026b3:	8a 45 d7             	mov    -0x29(%rbp),%al
  4026b6:	48 8b 4d c8          	mov    -0x38(%rbp),%rcx
  4026ba:	48 89 ca             	mov    %rcx,%rdx
  4026bd:	48 83 c2 01          	add    $0x1,%rdx
  4026c1:	48 89 55 c8          	mov    %rdx,-0x38(%rbp)
  4026c5:	88 01                	mov    %al,(%rcx)
  4026c7:	0f be 75 d7          	movsbl -0x29(%rbp),%esi
  4026cb:	83 fe 0a             	cmp    $0xa,%esi
  4026ce:	0f 85 05 00 00 00    	jne    4026d9 <rio_readlineb+0x79>
  4026d4:	e9 4b 00 00 00       	jmpq   402724 <rio_readlineb+0xc4>
  4026d9:	e9 33 00 00 00       	jmpq   402711 <rio_readlineb+0xb1>
  4026de:	83 7d d8 00          	cmpl   $0x0,-0x28(%rbp)
  4026e2:	0f 85 1c 00 00 00    	jne    402704 <rio_readlineb+0xa4>
  4026e8:	83 7d dc 01          	cmpl   $0x1,-0x24(%rbp)
  4026ec:	0f 85 0d 00 00 00    	jne    4026ff <rio_readlineb+0x9f>
  4026f2:	48 c7 45 f8 00 00 00 	movq   $0x0,-0x8(%rbp)
  4026f9:	00 
  4026fa:	e9 34 00 00 00       	jmpq   402733 <rio_readlineb+0xd3>
  4026ff:	e9 20 00 00 00       	jmpq   402724 <rio_readlineb+0xc4>
  402704:	48 c7 45 f8 ff ff ff 	movq   $0xffffffffffffffff,-0x8(%rbp)
  40270b:	ff 
  40270c:	e9 22 00 00 00       	jmpq   402733 <rio_readlineb+0xd3>
  402711:	e9 00 00 00 00       	jmpq   402716 <rio_readlineb+0xb6>
  402716:	8b 45 dc             	mov    -0x24(%rbp),%eax
  402719:	83 c0 01             	add    $0x1,%eax
  40271c:	89 45 dc             	mov    %eax,-0x24(%rbp)
  40271f:	e9 5f ff ff ff       	jmpq   402683 <rio_readlineb+0x23>
  402724:	48 8b 45 c8          	mov    -0x38(%rbp),%rax
  402728:	c6 00 00             	movb   $0x0,(%rax)
  40272b:	48 63 45 dc          	movslq -0x24(%rbp),%rax
  40272f:	48 89 45 f8          	mov    %rax,-0x8(%rbp)
  402733:	48 8b 45 f8          	mov    -0x8(%rbp),%rax
  402737:	48 83 c4 40          	add    $0x40,%rsp
  40273b:	5d                   	pop    %rbp
  40273c:	c3                   	retq   
  40273d:	0f 1f 00             	nopl   (%rax)

0000000000402740 <init_timeout>:
  402740:	55                   	push   %rbp
  402741:	48 89 e5             	mov    %rsp,%rbp
  402744:	48 83 ec 20          	sub    $0x20,%rsp
  402748:	89 7d fc             	mov    %edi,-0x4(%rbp)
  40274b:	83 7d fc 00          	cmpl   $0x0,-0x4(%rbp)
  40274f:	0f 85 05 00 00 00    	jne    40275a <init_timeout+0x1a>
  402755:	e9 34 00 00 00       	jmpq   40278e <init_timeout+0x4e>
  40275a:	83 7d fc 00          	cmpl   $0x0,-0x4(%rbp)
  40275e:	0f 8d 07 00 00 00    	jge    40276b <init_timeout+0x2b>
  402764:	c7 45 fc 05 00 00 00 	movl   $0x5,-0x4(%rbp)
  40276b:	bf 0e 00 00 00       	mov    $0xe,%edi
  402770:	48 be 00 1e 40 00 00 	movabs $0x401e00,%rsi
  402777:	00 00 00 
  40277a:	e8 01 e7 ff ff       	callq  400e80 <signal@plt>
  40277f:	8b 7d fc             	mov    -0x4(%rbp),%edi
  402782:	48 89 45 f0          	mov    %rax,-0x10(%rbp)
  402786:	e8 95 e6 ff ff       	callq  400e20 <alarm@plt>
  40278b:	89 45 ec             	mov    %eax,-0x14(%rbp)
  40278e:	48 83 c4 20          	add    $0x20,%rsp
  402792:	5d                   	pop    %rbp
  402793:	c3                   	retq   
  402794:	66 66 66 2e 0f 1f 84 	data16 data16 nopw %cs:0x0(%rax,%rax,1)
  40279b:	00 00 00 00 00 

00000000004027a0 <init_driver>:
  4027a0:	55                   	push   %rbp
  4027a1:	48 89 e5             	mov    %rsp,%rbp
  4027a4:	48 81 ec 90 00 00 00 	sub    $0x90,%rsp
  4027ab:	b8 0d 00 00 00       	mov    $0xd,%eax
  4027b0:	b9 01 00 00 00       	mov    $0x1,%ecx
  4027b5:	89 ce                	mov    %ecx,%esi
  4027b7:	48 ba 77 33 40 00 00 	movabs $0x403377,%rdx
  4027be:	00 00 00 
  4027c1:	48 89 7d f0          	mov    %rdi,-0x10(%rbp)
  4027c5:	48 89 55 c8          	mov    %rdx,-0x38(%rbp)
  4027c9:	c7 45 c4 26 47 00 00 	movl   $0x4726,-0x3c(%rbp)
  4027d0:	89 c7                	mov    %eax,%edi
  4027d2:	e8 a9 e6 ff ff       	callq  400e80 <signal@plt>
  4027d7:	bf 1d 00 00 00       	mov    $0x1d,%edi
  4027dc:	b9 01 00 00 00       	mov    $0x1,%ecx
  4027e1:	89 ce                	mov    %ecx,%esi
  4027e3:	48 89 45 b8          	mov    %rax,-0x48(%rbp)
  4027e7:	e8 94 e6 ff ff       	callq  400e80 <signal@plt>
  4027ec:	bf 1d 00 00 00       	mov    $0x1d,%edi
  4027f1:	b9 01 00 00 00       	mov    $0x1,%ecx
  4027f6:	89 ce                	mov    %ecx,%esi
  4027f8:	48 89 45 b0          	mov    %rax,-0x50(%rbp)
  4027fc:	e8 7f e6 ff ff       	callq  400e80 <signal@plt>
  402801:	bf 02 00 00 00       	mov    $0x2,%edi
  402806:	be 01 00 00 00       	mov    $0x1,%esi
  40280b:	31 d2                	xor    %edx,%edx
  40280d:	48 89 45 a8          	mov    %rax,-0x58(%rbp)
  402811:	e8 8a e7 ff ff       	callq  400fa0 <socket@plt>
  402816:	89 45 ec             	mov    %eax,-0x14(%rbp)
  402819:	83 f8 00             	cmp    $0x0,%eax
  40281c:	0f 8d 20 00 00 00    	jge    402842 <init_driver+0xa2>
  402822:	48 8b 7d f0          	mov    -0x10(%rbp),%rdi
  402826:	b8 2e 31 40 00       	mov    $0x40312e,%eax
  40282b:	89 c6                	mov    %eax,%esi
  40282d:	e8 3e e5 ff ff       	callq  400d70 <strcpy@plt>
  402832:	c7 45 fc ff ff ff ff 	movl   $0xffffffff,-0x4(%rbp)
  402839:	48 89 45 a0          	mov    %rax,-0x60(%rbp)
  40283d:	e9 19 01 00 00       	jmpq   40295b <init_driver+0x1bb>
  402842:	48 8b 7d c8          	mov    -0x38(%rbp),%rdi
  402846:	e8 45 e6 ff ff       	callq  400e90 <gethostbyname@plt>
  40284b:	48 89 45 e0          	mov    %rax,-0x20(%rbp)
  40284f:	48 83 f8 00          	cmp    $0x0,%rax
  402853:	0f 85 33 00 00 00    	jne    40288c <init_driver+0xec>
  402859:	48 be 54 31 40 00 00 	movabs $0x403154,%rsi
  402860:	00 00 00 
  402863:	48 8b 7d f0          	mov    -0x10(%rbp),%rdi
  402867:	48 8b 55 c8          	mov    -0x38(%rbp),%rdx
  40286b:	b0 00                	mov    $0x0,%al
  40286d:	e8 ee e6 ff ff       	callq  400f60 <sprintf@plt>
  402872:	8b 7d ec             	mov    -0x14(%rbp),%edi
  402875:	89 45 9c             	mov    %eax,-0x64(%rbp)
  402878:	e8 b3 e5 ff ff       	callq  400e30 <close@plt>
  40287d:	c7 45 fc ff ff ff ff 	movl   $0xffffffff,-0x4(%rbp)
  402884:	89 45 98             	mov    %eax,-0x68(%rbp)
  402887:	e9 cf 00 00 00       	jmpq   40295b <init_driver+0x1bb>
  40288c:	48 8d 45 d0          	lea    -0x30(%rbp),%rax
  402890:	31 f6                	xor    %esi,%esi
  402892:	b9 10 00 00 00       	mov    $0x10,%ecx
  402897:	89 ca                	mov    %ecx,%edx
  402899:	48 89 c7             	mov    %rax,%rdi
  40289c:	48 89 45 90          	mov    %rax,-0x70(%rbp)
  4028a0:	e8 6b e5 ff ff       	callq  400e10 <memset@plt>
  4028a5:	66 c7 45 d0 02 00    	movw   $0x2,-0x30(%rbp)
  4028ab:	48 8b 45 e0          	mov    -0x20(%rbp),%rax
  4028af:	48 8b 40 18          	mov    0x18(%rax),%rax
  4028b3:	48 8b 38             	mov    (%rax),%rdi
  4028b6:	48 8b 45 90          	mov    -0x70(%rbp),%rax
  4028ba:	48 83 c0 04          	add    $0x4,%rax
  4028be:	48 8b 55 e0          	mov    -0x20(%rbp),%rdx
  4028c2:	48 63 52 14          	movslq 0x14(%rdx),%rdx
  4028c6:	48 89 c6             	mov    %rax,%rsi
  4028c9:	e8 52 e6 ff ff       	callq  400f20 <bcopy@plt>
  4028ce:	8b 4d c4             	mov    -0x3c(%rbp),%ecx
  4028d1:	66 41 89 c8          	mov    %cx,%r8w
  4028d5:	41 0f b7 f8          	movzwl %r8w,%edi
  4028d9:	e8 02 e5 ff ff       	callq  400de0 <htons@plt>
  4028de:	ba 10 00 00 00       	mov    $0x10,%edx
  4028e3:	48 8d 75 d0          	lea    -0x30(%rbp),%rsi
  4028e7:	66 89 45 d2          	mov    %ax,-0x2e(%rbp)
  4028eb:	8b 7d ec             	mov    -0x14(%rbp),%edi
  4028ee:	e8 8d e6 ff ff       	callq  400f80 <connect@plt>
  4028f3:	83 f8 00             	cmp    $0x0,%eax
  4028f6:	0f 8d 36 00 00 00    	jge    402932 <init_driver+0x192>
  4028fc:	48 be 8f 33 40 00 00 	movabs $0x40338f,%rsi
  402903:	00 00 00 
  402906:	48 8b 7d f0          	mov    -0x10(%rbp),%rdi
  40290a:	48 8b 55 c8          	mov    -0x38(%rbp),%rdx
  40290e:	8b 4d c4             	mov    -0x3c(%rbp),%ecx
  402911:	b0 00                	mov    $0x0,%al
  402913:	e8 48 e6 ff ff       	callq  400f60 <sprintf@plt>
  402918:	8b 7d ec             	mov    -0x14(%rbp),%edi
  40291b:	89 45 8c             	mov    %eax,-0x74(%rbp)
  40291e:	e8 0d e5 ff ff       	callq  400e30 <close@plt>
  402923:	c7 45 fc ff ff ff ff 	movl   $0xffffffff,-0x4(%rbp)
  40292a:	89 45 88             	mov    %eax,-0x78(%rbp)
  40292d:	e9 29 00 00 00       	jmpq   40295b <init_driver+0x1bb>
  402932:	8b 7d ec             	mov    -0x14(%rbp),%edi
  402935:	e8 f6 e4 ff ff       	callq  400e30 <close@plt>
  40293a:	48 8b 7d f0          	mov    -0x10(%rbp),%rdi
  40293e:	b9 74 33 40 00       	mov    $0x403374,%ecx
  402943:	89 ce                	mov    %ecx,%esi
  402945:	89 45 84             	mov    %eax,-0x7c(%rbp)
  402948:	e8 23 e4 ff ff       	callq  400d70 <strcpy@plt>
  40294d:	c7 45 fc 00 00 00 00 	movl   $0x0,-0x4(%rbp)
  402954:	48 89 85 78 ff ff ff 	mov    %rax,-0x88(%rbp)
  40295b:	8b 45 fc             	mov    -0x4(%rbp),%eax
  40295e:	48 81 c4 90 00 00 00 	add    $0x90,%rsp
  402965:	5d                   	pop    %rbp
  402966:	c3                   	retq   
  402967:	66 0f 1f 84 00 00 00 	nopw   0x0(%rax,%rax,1)
  40296e:	00 00 

0000000000402970 <driver_post>:
  402970:	55                   	push   %rbp
  402971:	48 89 e5             	mov    %rsp,%rbp
  402974:	48 83 ec 50          	sub    $0x50,%rsp
  402978:	48 89 7d f0          	mov    %rdi,-0x10(%rbp)
  40297c:	48 89 75 e8          	mov    %rsi,-0x18(%rbp)
  402980:	89 55 e4             	mov    %edx,-0x1c(%rbp)
  402983:	48 89 4d d8          	mov    %rcx,-0x28(%rbp)
  402987:	83 7d e4 00          	cmpl   $0x0,-0x1c(%rbp)
  40298b:	0f 84 38 00 00 00    	je     4029c9 <driver_post+0x59>
  402991:	48 bf b8 33 40 00 00 	movabs $0x4033b8,%rdi
  402998:	00 00 00 
  40299b:	48 8b 75 e8          	mov    -0x18(%rbp),%rsi
  40299f:	b0 00                	mov    $0x0,%al
  4029a1:	e8 4a e4 ff ff       	callq  400df0 <printf@plt>
  4029a6:	48 8b 7d d8          	mov    -0x28(%rbp),%rdi
  4029aa:	b9 74 33 40 00       	mov    $0x403374,%ecx
  4029af:	89 ce                	mov    %ecx,%esi
  4029b1:	89 45 d0             	mov    %eax,-0x30(%rbp)
  4029b4:	e8 b7 e3 ff ff       	callq  400d70 <strcpy@plt>
  4029b9:	c7 45 fc 00 00 00 00 	movl   $0x0,-0x4(%rbp)
  4029c0:	48 89 45 c8          	mov    %rax,-0x38(%rbp)
  4029c4:	e9 85 00 00 00       	jmpq   402a4e <driver_post+0xde>
  4029c9:	48 83 7d f0 00       	cmpq   $0x0,-0x10(%rbp)
  4029ce:	0f 84 5f 00 00 00    	je     402a33 <driver_post+0xc3>
  4029d4:	48 8b 7d f0          	mov    -0x10(%rbp),%rdi
  4029d8:	b8 6a 32 40 00       	mov    $0x40326a,%eax
  4029dd:	89 c6                	mov    %eax,%esi
  4029df:	e8 8c e4 ff ff       	callq  400e70 <strcmp@plt>
  4029e4:	83 f8 00             	cmp    $0x0,%eax
  4029e7:	0f 84 46 00 00 00    	je     402a33 <driver_post+0xc3>
  4029ed:	48 bf 77 33 40 00 00 	movabs $0x403377,%rdi
  4029f4:	00 00 00 
  4029f7:	be 26 47 00 00       	mov    $0x4726,%esi
  4029fc:	48 ba cf 33 40 00 00 	movabs $0x4033cf,%rdx
  402a03:	00 00 00 
  402a06:	49 b8 d5 33 40 00 00 	movabs $0x4033d5,%r8
  402a0d:	00 00 00 
  402a10:	48 8b 4d f0          	mov    -0x10(%rbp),%rcx
  402a14:	4c 8b 4d e8          	mov    -0x18(%rbp),%r9
  402a18:	48 8b 45 d8          	mov    -0x28(%rbp),%rax
  402a1c:	48 89 04 24          	mov    %rax,(%rsp)
  402a20:	e8 1b f4 ff ff       	callq  401e40 <submitr>
  402a25:	89 45 d4             	mov    %eax,-0x2c(%rbp)
  402a28:	8b 45 d4             	mov    -0x2c(%rbp),%eax
  402a2b:	89 45 fc             	mov    %eax,-0x4(%rbp)
  402a2e:	e9 1b 00 00 00       	jmpq   402a4e <driver_post+0xde>
  402a33:	48 8b 7d d8          	mov    -0x28(%rbp),%rdi
  402a37:	b8 74 33 40 00       	mov    $0x403374,%eax
  402a3c:	89 c6                	mov    %eax,%esi
  402a3e:	e8 2d e3 ff ff       	callq  400d70 <strcpy@plt>
  402a43:	c7 45 fc 00 00 00 00 	movl   $0x0,-0x4(%rbp)
  402a4a:	48 89 45 c0          	mov    %rax,-0x40(%rbp)
  402a4e:	8b 45 fc             	mov    -0x4(%rbp),%eax
  402a51:	48 83 c4 50          	add    $0x50,%rsp
  402a55:	5d                   	pop    %rbp
  402a56:	c3                   	retq   
  402a57:	66 0f 1f 84 00 00 00 	nopw   0x0(%rax,%rax,1)
  402a5e:	00 00 

0000000000402a60 <rio_read>:
  402a60:	55                   	push   %rbp
  402a61:	48 89 e5             	mov    %rsp,%rbp
  402a64:	48 83 ec 30          	sub    $0x30,%rsp
  402a68:	48 89 7d f0          	mov    %rdi,-0x10(%rbp)
  402a6c:	48 89 75 e8          	mov    %rsi,-0x18(%rbp)
  402a70:	48 89 55 e0          	mov    %rdx,-0x20(%rbp)
  402a74:	48 8b 45 f0          	mov    -0x10(%rbp),%rax
  402a78:	83 78 04 00          	cmpl   $0x0,0x4(%rax)
  402a7c:	0f 8f 89 00 00 00    	jg     402b0b <rio_read+0xab>
  402a82:	b8 00 20 00 00       	mov    $0x2000,%eax
  402a87:	89 c2                	mov    %eax,%edx
  402a89:	48 8b 4d f0          	mov    -0x10(%rbp),%rcx
  402a8d:	8b 39                	mov    (%rcx),%edi
  402a8f:	48 8b 4d f0          	mov    -0x10(%rbp),%rcx
  402a93:	48 83 c1 10          	add    $0x10,%rcx
  402a97:	48 89 ce             	mov    %rcx,%rsi
  402a9a:	e8 a1 e3 ff ff       	callq  400e40 <read@plt>
  402a9f:	89 c7                	mov    %eax,%edi
  402aa1:	48 8b 45 f0          	mov    -0x10(%rbp),%rax
  402aa5:	89 78 04             	mov    %edi,0x4(%rax)
  402aa8:	48 8b 45 f0          	mov    -0x10(%rbp),%rax
  402aac:	83 78 04 00          	cmpl   $0x0,0x4(%rax)
  402ab0:	0f 8d 20 00 00 00    	jge    402ad6 <rio_read+0x76>
  402ab6:	e8 95 e2 ff ff       	callq  400d50 <__errno_location@plt>
  402abb:	83 38 04             	cmpl   $0x4,(%rax)
  402abe:	0f 84 0d 00 00 00    	je     402ad1 <rio_read+0x71>
  402ac4:	48 c7 45 f8 ff ff ff 	movq   $0xffffffffffffffff,-0x8(%rbp)
  402acb:	ff 
  402acc:	e9 a3 00 00 00       	jmpq   402b74 <rio_read+0x114>
  402ad1:	e9 30 00 00 00       	jmpq   402b06 <rio_read+0xa6>
  402ad6:	48 8b 45 f0          	mov    -0x10(%rbp),%rax
  402ada:	83 78 04 00          	cmpl   $0x0,0x4(%rax)
  402ade:	0f 85 0d 00 00 00    	jne    402af1 <rio_read+0x91>
  402ae4:	48 c7 45 f8 00 00 00 	movq   $0x0,-0x8(%rbp)
  402aeb:	00 
  402aec:	e9 83 00 00 00       	jmpq   402b74 <rio_read+0x114>
  402af1:	48 8b 45 f0          	mov    -0x10(%rbp),%rax
  402af5:	48 83 c0 10          	add    $0x10,%rax
  402af9:	48 8b 4d f0          	mov    -0x10(%rbp),%rcx
  402afd:	48 89 41 08          	mov    %rax,0x8(%rcx)
  402b01:	e9 00 00 00 00       	jmpq   402b06 <rio_read+0xa6>
  402b06:	e9 69 ff ff ff       	jmpq   402a74 <rio_read+0x14>
  402b0b:	48 8b 45 e0          	mov    -0x20(%rbp),%rax
  402b0f:	89 c1                	mov    %eax,%ecx
  402b11:	89 4d dc             	mov    %ecx,-0x24(%rbp)
  402b14:	48 8b 45 f0          	mov    -0x10(%rbp),%rax
  402b18:	48 63 40 04          	movslq 0x4(%rax),%rax
  402b1c:	48 3b 45 e0          	cmp    -0x20(%rbp),%rax
  402b20:	0f 83 0a 00 00 00    	jae    402b30 <rio_read+0xd0>
  402b26:	48 8b 45 f0          	mov    -0x10(%rbp),%rax
  402b2a:	8b 48 04             	mov    0x4(%rax),%ecx
  402b2d:	89 4d dc             	mov    %ecx,-0x24(%rbp)
  402b30:	48 8b 7d e8          	mov    -0x18(%rbp),%rdi
  402b34:	48 8b 45 f0          	mov    -0x10(%rbp),%rax
  402b38:	48 8b 70 08          	mov    0x8(%rax),%rsi
  402b3c:	48 63 55 dc          	movslq -0x24(%rbp),%rdx
  402b40:	e8 6b e3 ff ff       	callq  400eb0 <memcpy@plt>
  402b45:	8b 4d dc             	mov    -0x24(%rbp),%ecx
  402b48:	48 8b 45 f0          	mov    -0x10(%rbp),%rax
  402b4c:	48 8b 50 08          	mov    0x8(%rax),%rdx
  402b50:	48 63 f1             	movslq %ecx,%rsi
  402b53:	48 01 f2             	add    %rsi,%rdx
  402b56:	48 89 50 08          	mov    %rdx,0x8(%rax)
  402b5a:	8b 4d dc             	mov    -0x24(%rbp),%ecx
  402b5d:	48 8b 45 f0          	mov    -0x10(%rbp),%rax
  402b61:	44 8b 40 04          	mov    0x4(%rax),%r8d
  402b65:	41 29 c8             	sub    %ecx,%r8d
  402b68:	44 89 40 04          	mov    %r8d,0x4(%rax)
  402b6c:	48 63 45 dc          	movslq -0x24(%rbp),%rax
  402b70:	48 89 45 f8          	mov    %rax,-0x8(%rbp)
  402b74:	48 8b 45 f8          	mov    -0x8(%rbp),%rax
  402b78:	48 83 c4 30          	add    $0x30,%rsp
  402b7c:	5d                   	pop    %rbp
  402b7d:	c3                   	retq   
  402b7e:	66 90                	xchg   %ax,%ax

0000000000402b80 <check>:
  402b80:	55                   	push   %rbp
  402b81:	48 89 e5             	mov    %rsp,%rbp
  402b84:	89 7d f8             	mov    %edi,-0x8(%rbp)
  402b87:	8b 7d f8             	mov    -0x8(%rbp),%edi
  402b8a:	c1 ef 1c             	shr    $0x1c,%edi
  402b8d:	83 e7 0f             	and    $0xf,%edi
  402b90:	83 ff 00             	cmp    $0x0,%edi
  402b93:	0f 85 0c 00 00 00    	jne    402ba5 <check+0x25>
  402b99:	c7 45 fc 00 00 00 00 	movl   $0x0,-0x4(%rbp)
  402ba0:	e9 4d 00 00 00       	jmpq   402bf2 <check+0x72>
  402ba5:	c7 45 f4 00 00 00 00 	movl   $0x0,-0xc(%rbp)
  402bac:	83 7d f4 20          	cmpl   $0x20,-0xc(%rbp)
  402bb0:	0f 8d 35 00 00 00    	jge    402beb <check+0x6b>
  402bb6:	8b 45 f8             	mov    -0x8(%rbp),%eax
  402bb9:	8b 4d f4             	mov    -0xc(%rbp),%ecx
  402bbc:	d3 e8                	shr    %cl,%eax
  402bbe:	25 ff 00 00 00       	and    $0xff,%eax
  402bc3:	83 f8 0a             	cmp    $0xa,%eax
  402bc6:	0f 85 0c 00 00 00    	jne    402bd8 <check+0x58>
  402bcc:	c7 45 fc 00 00 00 00 	movl   $0x0,-0x4(%rbp)
  402bd3:	e9 1a 00 00 00       	jmpq   402bf2 <check+0x72>
  402bd8:	e9 00 00 00 00       	jmpq   402bdd <check+0x5d>
  402bdd:	8b 45 f4             	mov    -0xc(%rbp),%eax
  402be0:	83 c0 08             	add    $0x8,%eax
  402be3:	89 45 f4             	mov    %eax,-0xc(%rbp)
  402be6:	e9 c1 ff ff ff       	jmpq   402bac <check+0x2c>
  402beb:	c7 45 fc 01 00 00 00 	movl   $0x1,-0x4(%rbp)
  402bf2:	8b 45 fc             	mov    -0x4(%rbp),%eax
  402bf5:	5d                   	pop    %rbp
  402bf6:	c3                   	retq   
  402bf7:	66 0f 1f 84 00 00 00 	nopw   0x0(%rax,%rax,1)
  402bfe:	00 00 

0000000000402c00 <gencookie>:
  402c00:	55                   	push   %rbp
  402c01:	48 89 e5             	mov    %rsp,%rbp
  402c04:	48 83 ec 10          	sub    $0x10,%rsp
  402c08:	31 c0                	xor    %eax,%eax
  402c0a:	89 c1                	mov    %eax,%ecx
  402c0c:	48 89 7d f8          	mov    %rdi,-0x8(%rbp)
  402c10:	48 89 cf             	mov    %rcx,%rdi
  402c13:	e8 a8 e2 ff ff       	callq  400ec0 <time@plt>
  402c18:	89 c2                	mov    %eax,%edx
  402c1a:	89 d7                	mov    %edx,%edi
  402c1c:	e8 2f e2 ff ff       	callq  400e50 <srand@plt>
  402c21:	e8 6a e3 ff ff       	callq  400f90 <rand@plt>
  402c26:	89 45 f4             	mov    %eax,-0xc(%rbp)
  402c29:	8b 7d f4             	mov    -0xc(%rbp),%edi
  402c2c:	e8 4f ff ff ff       	callq  402b80 <check>
  402c31:	83 f8 00             	cmp    $0x0,%eax
  402c34:	0f 95 c1             	setne  %cl
  402c37:	80 f1 ff             	xor    $0xff,%cl
  402c3a:	f6 c1 01             	test   $0x1,%cl
  402c3d:	0f 85 de ff ff ff    	jne    402c21 <gencookie+0x21>
  402c43:	8b 45 f4             	mov    -0xc(%rbp),%eax
  402c46:	48 83 c4 10          	add    $0x10,%rsp
  402c4a:	5d                   	pop    %rbp
  402c4b:	c3                   	retq   
  402c4c:	0f 1f 40 00          	nopl   0x0(%rax)

0000000000402c50 <__libc_csu_init>:
  402c50:	41 57                	push   %r15
  402c52:	41 56                	push   %r14
  402c54:	49 89 d7             	mov    %rdx,%r15
  402c57:	41 55                	push   %r13
  402c59:	41 54                	push   %r12
  402c5b:	4c 8d 25 ae 11 20 00 	lea    0x2011ae(%rip),%r12        # 603e10 <__frame_dummy_init_array_entry>
  402c62:	55                   	push   %rbp
  402c63:	48 8d 2d ae 11 20 00 	lea    0x2011ae(%rip),%rbp        # 603e18 <__init_array_end>
  402c6a:	53                   	push   %rbx
  402c6b:	41 89 fd             	mov    %edi,%r13d
  402c6e:	49 89 f6             	mov    %rsi,%r14
  402c71:	4c 29 e5             	sub    %r12,%rbp
  402c74:	48 83 ec 08          	sub    $0x8,%rsp
  402c78:	48 c1 fd 03          	sar    $0x3,%rbp
  402c7c:	e8 97 e0 ff ff       	callq  400d18 <_init>
  402c81:	48 85 ed             	test   %rbp,%rbp
  402c84:	74 20                	je     402ca6 <__libc_csu_init+0x56>
  402c86:	31 db                	xor    %ebx,%ebx
  402c88:	0f 1f 84 00 00 00 00 	nopl   0x0(%rax,%rax,1)
  402c8f:	00 
  402c90:	4c 89 fa             	mov    %r15,%rdx
  402c93:	4c 89 f6             	mov    %r14,%rsi
  402c96:	44 89 ef             	mov    %r13d,%edi
  402c99:	41 ff 14 dc          	callq  *(%r12,%rbx,8)
  402c9d:	48 83 c3 01          	add    $0x1,%rbx
  402ca1:	48 39 dd             	cmp    %rbx,%rbp
  402ca4:	75 ea                	jne    402c90 <__libc_csu_init+0x40>
  402ca6:	48 83 c4 08          	add    $0x8,%rsp
  402caa:	5b                   	pop    %rbx
  402cab:	5d                   	pop    %rbp
  402cac:	41 5c                	pop    %r12
  402cae:	41 5d                	pop    %r13
  402cb0:	41 5e                	pop    %r14
  402cb2:	41 5f                	pop    %r15
  402cb4:	c3                   	retq   
  402cb5:	90                   	nop
  402cb6:	66 2e 0f 1f 84 00 00 	nopw   %cs:0x0(%rax,%rax,1)
  402cbd:	00 00 00 

0000000000402cc0 <__libc_csu_fini>:
  402cc0:	f3 c3                	repz retq 

Disassembly of section .fini:

0000000000402cc4 <_fini>:
  402cc4:	48 83 ec 08          	sub    $0x8,%rsp
  402cc8:	48 83 c4 08          	add    $0x8,%rsp
  402ccc:	c3                   	retq   
